ARM GAS  C:\Users\Grant\AppData\Local\Temp\ccNjaI4C.s 			page 1


   1              		.cpu cortex-m7
   2              		.eabi_attribute 28, 1
   3              		.eabi_attribute 20, 1
   4              		.eabi_attribute 21, 1
   5              		.eabi_attribute 23, 3
   6              		.eabi_attribute 24, 1
   7              		.eabi_attribute 25, 1
   8              		.eabi_attribute 26, 1
   9              		.eabi_attribute 30, 2
  10              		.eabi_attribute 34, 1
  11              		.eabi_attribute 18, 4
  12              		.file	"TapeLooper.cpp"
  13              		.text
  14              	.Ltext0:
  15              		.cfi_sections	.debug_frame
  16              		.section	.text._ZN5daisy6SwitchD2Ev,"axG",%progbits,_ZN5daisy6SwitchD5Ev,comdat
  17              		.align	1
  18              		.p2align 2,,3
  19              		.weak	_ZN5daisy6SwitchD2Ev
  20              		.arch armv7e-m
  21              		.syntax unified
  22              		.thumb
  23              		.thumb_func
  24              		.fpu fpv5-d16
  26              	_ZN5daisy6SwitchD2Ev:
  27              	.LVL0:
  28              	.LFB1639:
  29              		.file 1 "../../libDaisy//src/hid/switch.h"
   1:../../libDaisy//src/hid/switch.h **** #pragma once
   2:../../libDaisy//src/hid/switch.h **** #ifndef DSY_SWITCH_H
   3:../../libDaisy//src/hid/switch.h **** #define DSY_SWITCH_H
   4:../../libDaisy//src/hid/switch.h **** #include "daisy_core.h"
   5:../../libDaisy//src/hid/switch.h **** #include "per/gpio.h"
   6:../../libDaisy//src/hid/switch.h **** #include "sys/system.h"
   7:../../libDaisy//src/hid/switch.h **** 
   8:../../libDaisy//src/hid/switch.h **** namespace daisy
   9:../../libDaisy//src/hid/switch.h **** {
  10:../../libDaisy//src/hid/switch.h **** /** 
  11:../../libDaisy//src/hid/switch.h ****     Generic Class for handling momentary/latching switches \n 
  12:../../libDaisy//src/hid/switch.h ****     Inspired/influenced by Mutable Instruments (pichenettes) Switch classes
  13:../../libDaisy//src/hid/switch.h ****     @author Stephen Hensley
  14:../../libDaisy//src/hid/switch.h ****     @date December 2019
  15:../../libDaisy//src/hid/switch.h ****     @ingroup controls
  16:../../libDaisy//src/hid/switch.h **** */
  17:../../libDaisy//src/hid/switch.h **** class Switch
  18:../../libDaisy//src/hid/switch.h **** {
  19:../../libDaisy//src/hid/switch.h ****   public:
  20:../../libDaisy//src/hid/switch.h ****     /** Specifies the expected behavior of the switch */
  21:../../libDaisy//src/hid/switch.h ****     enum Type
  22:../../libDaisy//src/hid/switch.h ****     {
  23:../../libDaisy//src/hid/switch.h ****         TYPE_TOGGLE,    /**< & */
  24:../../libDaisy//src/hid/switch.h ****         TYPE_MOMENTARY, /**< & */
  25:../../libDaisy//src/hid/switch.h ****     };
  26:../../libDaisy//src/hid/switch.h ****     /** Specifies whether the pressed is HIGH or LOW. */
  27:../../libDaisy//src/hid/switch.h ****     enum Polarity
  28:../../libDaisy//src/hid/switch.h ****     {
  29:../../libDaisy//src/hid/switch.h ****         POLARITY_NORMAL,   /**< & */
ARM GAS  C:\Users\Grant\AppData\Local\Temp\ccNjaI4C.s 			page 2


  30:../../libDaisy//src/hid/switch.h ****         POLARITY_INVERTED, /**< & */
  31:../../libDaisy//src/hid/switch.h ****     };
  32:../../libDaisy//src/hid/switch.h **** 
  33:../../libDaisy//src/hid/switch.h ****     /** Specifies whether to use built-in Pull Up/Down resistors to hold button at a given state wh
  34:../../libDaisy//src/hid/switch.h ****     enum Pull
  35:../../libDaisy//src/hid/switch.h ****     {
  36:../../libDaisy//src/hid/switch.h ****         PULL_UP,   /**< & */
  37:../../libDaisy//src/hid/switch.h ****         PULL_DOWN, /**< & */
  38:../../libDaisy//src/hid/switch.h ****         PULL_NONE, /**< & */
  39:../../libDaisy//src/hid/switch.h ****     };
  40:../../libDaisy//src/hid/switch.h **** 
  41:../../libDaisy//src/hid/switch.h ****     Switch() {}
  42:../../libDaisy//src/hid/switch.h ****     ~Switch() {}
  30              		.loc 1 42 5 view -0
  31              		.cfi_startproc
  32              		@ args = 0, pretend = 0, frame = 0
  33              		@ frame_needed = 0, uses_anonymous_args = 0
  34              		@ link register save eliminated.
  35              		.loc 1 42 16 is_stmt 0 view .LVU1
  36 0000 7047     		bx	lr
  37              		.cfi_endproc
  38              	.LFE1639:
  40              		.weak	_ZN5daisy6SwitchD1Ev
  41              		.thumb_set _ZN5daisy6SwitchD1Ev,_ZN5daisy6SwitchD2Ev
  42 0002 00BF     		.section	.text._ZN5daisy3LedD2Ev,"axG",%progbits,_ZN5daisy3LedD5Ev,comdat
  43              		.align	1
  44              		.p2align 2,,3
  45              		.weak	_ZN5daisy3LedD2Ev
  46              		.syntax unified
  47              		.thumb
  48              		.thumb_func
  49              		.fpu fpv5-d16
  51              	_ZN5daisy3LedD2Ev:
  52              	.LVL1:
  53              	.LFB1844:
  54              		.file 2 "../../libDaisy//src/hid/led.h"
   1:../../libDaisy//src/hid/led.h **** 
   2:../../libDaisy//src/hid/led.h **** #pragma once
   3:../../libDaisy//src/hid/led.h **** #ifndef DSY_LED_H
   4:../../libDaisy//src/hid/led.h **** #define DSY_LED_H
   5:../../libDaisy//src/hid/led.h **** #include "daisy_core.h"
   6:../../libDaisy//src/hid/led.h **** #include "per/gpio.h"
   7:../../libDaisy//src/hid/led.h **** 
   8:../../libDaisy//src/hid/led.h **** /* TODO - Get this set up to work with the dev_leddriver stuff as well
   9:../../libDaisy//src/hid/led.h **** - Setup Hardware PWM for pins that have it
  10:../../libDaisy//src/hid/led.h **** */
  11:../../libDaisy//src/hid/led.h **** 
  12:../../libDaisy//src/hid/led.h **** namespace daisy
  13:../../libDaisy//src/hid/led.h **** {
  14:../../libDaisy//src/hid/led.h **** /**
  15:../../libDaisy//src/hid/led.h ****     @brief LED Class providing simple Software PWM ability, etc \n 
  16:../../libDaisy//src/hid/led.h ****     Eventually this will work with hardware PWM, and external LED Driver devices as well.
  17:../../libDaisy//src/hid/led.h ****     @author shensley
  18:../../libDaisy//src/hid/led.h ****     @date March 2020
  19:../../libDaisy//src/hid/led.h ****     @ingroup feedback
  20:../../libDaisy//src/hid/led.h **** */
  21:../../libDaisy//src/hid/led.h **** class Led
ARM GAS  C:\Users\Grant\AppData\Local\Temp\ccNjaI4C.s 			page 3


  22:../../libDaisy//src/hid/led.h **** {
  23:../../libDaisy//src/hid/led.h ****   public:
  24:../../libDaisy//src/hid/led.h ****     Led() {}
  25:../../libDaisy//src/hid/led.h ****     ~Led() {}
  55              		.loc 2 25 5 is_stmt 1 view -0
  56              		.cfi_startproc
  57              		@ args = 0, pretend = 0, frame = 0
  58              		@ frame_needed = 0, uses_anonymous_args = 0
  59              		@ link register save eliminated.
  60              		.loc 2 25 13 is_stmt 0 view .LVU3
  61 0000 7047     		bx	lr
  62              		.cfi_endproc
  63              	.LFE1844:
  65              		.weak	_ZN5daisy3LedD1Ev
  66              		.thumb_set _ZN5daisy3LedD1Ev,_ZN5daisy3LedD2Ev
  67              		.section	.text._ZN5daisy9DaisySeedD2Ev,"axG",%progbits,_ZN5daisy9DaisySeedD5Ev,comdat
  68              		.align	1
  69              		.p2align 2,,3
  70              		.weak	_ZN5daisy9DaisySeedD2Ev
  71              		.syntax unified
  72              		.thumb
  73              		.thumb_func
  74              		.fpu fpv5-d16
  76              	_ZN5daisy9DaisySeedD2Ev:
  77              	.LVL2:
  78              	.LFB2555:
  79              		.file 3 "../../libDaisy//src/daisy_seed.h"
   1:../../libDaisy//src/daisy_seed.h **** #pragma once
   2:../../libDaisy//src/daisy_seed.h **** #ifndef DSY_SEED_H
   3:../../libDaisy//src/daisy_seed.h **** #define DSY_SEED_H
   4:../../libDaisy//src/daisy_seed.h **** 
   5:../../libDaisy//src/daisy_seed.h **** #include "daisy.h"
   6:../../libDaisy//src/daisy_seed.h **** 
   7:../../libDaisy//src/daisy_seed.h **** //Uncomment this out if you're still using the rev2 hardware
   8:../../libDaisy//src/daisy_seed.h **** //#define SEED_REV2
   9:../../libDaisy//src/daisy_seed.h **** 
  10:../../libDaisy//src/daisy_seed.h **** namespace daisy
  11:../../libDaisy//src/daisy_seed.h **** {
  12:../../libDaisy//src/daisy_seed.h **** /**
  13:../../libDaisy//src/daisy_seed.h ****    @brief This is the higher-level interface for the Daisy board. \n 
  14:../../libDaisy//src/daisy_seed.h ****     All basic peripheral configuration/initialization is setup here. \n
  15:../../libDaisy//src/daisy_seed.h **** 
  16:../../libDaisy//src/daisy_seed.h ****    @ingroup boards
  17:../../libDaisy//src/daisy_seed.h **** */
  18:../../libDaisy//src/daisy_seed.h **** class DaisySeed
  19:../../libDaisy//src/daisy_seed.h **** {
  20:../../libDaisy//src/daisy_seed.h ****   public:
  21:../../libDaisy//src/daisy_seed.h ****     DaisySeed() {}
  22:../../libDaisy//src/daisy_seed.h ****     ~DaisySeed() {}
  80              		.loc 3 22 5 is_stmt 1 view -0
  81              		.cfi_startproc
  82              		@ args = 0, pretend = 0, frame = 0
  83              		@ frame_needed = 0, uses_anonymous_args = 0
  84              		@ link register save eliminated.
  85              	.LBB770:
  86              	.LBI770:
  87              		.file 4 "../../libDaisy//src/sys/system.h"
ARM GAS  C:\Users\Grant\AppData\Local\Temp\ccNjaI4C.s 			page 4


   1:../../libDaisy//src/sys/system.h **** #ifndef DSY_SYSTEM_H
   2:../../libDaisy//src/sys/system.h **** #define DSY_SYSTEM_H
   3:../../libDaisy//src/sys/system.h **** 
   4:../../libDaisy//src/sys/system.h **** #ifndef UNIT_TEST // for unit tests, a dummy implementation is provided below
   5:../../libDaisy//src/sys/system.h **** 
   6:../../libDaisy//src/sys/system.h **** #include <cstdint>
   7:../../libDaisy//src/sys/system.h **** #include "per/tim.h"
   8:../../libDaisy//src/sys/system.h **** 
   9:../../libDaisy//src/sys/system.h **** namespace daisy
  10:../../libDaisy//src/sys/system.h **** {
  11:../../libDaisy//src/sys/system.h **** /** A handle for interacting with the Core System.
  12:../../libDaisy//src/sys/system.h ****  ** This includes the Clock tree, MPU, global DMA initialization,
  13:../../libDaisy//src/sys/system.h ****  ** cache handling, and any other necessary global initiailzation
  14:../../libDaisy//src/sys/system.h ****  **
  15:../../libDaisy//src/sys/system.h ****  ** @author shensley
  16:../../libDaisy//src/sys/system.h ****  ** @ingroup system
  17:../../libDaisy//src/sys/system.h ****  */
  18:../../libDaisy//src/sys/system.h **** class System
  19:../../libDaisy//src/sys/system.h **** {
  20:../../libDaisy//src/sys/system.h ****   public:
  21:../../libDaisy//src/sys/system.h ****     /** Contains settings for initializing the System */
  22:../../libDaisy//src/sys/system.h ****     struct Config
  23:../../libDaisy//src/sys/system.h ****     {
  24:../../libDaisy//src/sys/system.h ****         /** Specifies the system clock frequency that feeds APB/AHB clocks, etc. */
  25:../../libDaisy//src/sys/system.h ****         enum class SysClkFreq
  26:../../libDaisy//src/sys/system.h ****         {
  27:../../libDaisy//src/sys/system.h ****             FREQ_400MHZ,
  28:../../libDaisy//src/sys/system.h ****             FREQ_480MHZ,
  29:../../libDaisy//src/sys/system.h ****         };
  30:../../libDaisy//src/sys/system.h **** 
  31:../../libDaisy//src/sys/system.h ****         /** Method to call on the struct to set to defaults
  32:../../libDaisy//src/sys/system.h ****          ** CPU Freq set to 400MHz
  33:../../libDaisy//src/sys/system.h ****          ** Cache Enabled
  34:../../libDaisy//src/sys/system.h ****          ** */
  35:../../libDaisy//src/sys/system.h ****         void Defaults()
  36:../../libDaisy//src/sys/system.h ****         {
  37:../../libDaisy//src/sys/system.h ****             cpu_freq    = SysClkFreq::FREQ_400MHZ;
  38:../../libDaisy//src/sys/system.h ****             use_dcache  = true;
  39:../../libDaisy//src/sys/system.h ****             use_icache  = true;
  40:../../libDaisy//src/sys/system.h ****             skip_clocks = false;
  41:../../libDaisy//src/sys/system.h ****         }
  42:../../libDaisy//src/sys/system.h **** 
  43:../../libDaisy//src/sys/system.h ****         /** Method to call on the struct to set to boost mode:
  44:../../libDaisy//src/sys/system.h ****          ** CPU Freq set to 480MHz
  45:../../libDaisy//src/sys/system.h ****          ** Cache Enabled
  46:../../libDaisy//src/sys/system.h ****          ** */
  47:../../libDaisy//src/sys/system.h ****         void Boost()
  48:../../libDaisy//src/sys/system.h ****         {
  49:../../libDaisy//src/sys/system.h ****             cpu_freq    = SysClkFreq::FREQ_480MHZ;
  50:../../libDaisy//src/sys/system.h ****             use_dcache  = true;
  51:../../libDaisy//src/sys/system.h ****             use_icache  = true;
  52:../../libDaisy//src/sys/system.h ****             skip_clocks = false;
  53:../../libDaisy//src/sys/system.h ****         }
  54:../../libDaisy//src/sys/system.h **** 
  55:../../libDaisy//src/sys/system.h ****         SysClkFreq cpu_freq;
  56:../../libDaisy//src/sys/system.h ****         bool       use_dcache;
  57:../../libDaisy//src/sys/system.h ****         bool       use_icache;
ARM GAS  C:\Users\Grant\AppData\Local\Temp\ccNjaI4C.s 			page 5


  58:../../libDaisy//src/sys/system.h ****         bool       skip_clocks;
  59:../../libDaisy//src/sys/system.h ****     };
  60:../../libDaisy//src/sys/system.h **** 
  61:../../libDaisy//src/sys/system.h ****     /** Describes the different regions of memory available to the Daisy */
  62:../../libDaisy//src/sys/system.h ****     enum MemoryRegion
  63:../../libDaisy//src/sys/system.h ****     {
  64:../../libDaisy//src/sys/system.h ****         INTERNAL_FLASH = 0,
  65:../../libDaisy//src/sys/system.h ****         ITCMRAM,
  66:../../libDaisy//src/sys/system.h ****         DTCMRAM,
  67:../../libDaisy//src/sys/system.h ****         SRAM_D1,
  68:../../libDaisy//src/sys/system.h ****         SRAM_D2,
  69:../../libDaisy//src/sys/system.h ****         SRAM_D3,
  70:../../libDaisy//src/sys/system.h ****         SDRAM,
  71:../../libDaisy//src/sys/system.h ****         QSPI,
  72:../../libDaisy//src/sys/system.h ****         INVALID_ADDRESS,
  73:../../libDaisy//src/sys/system.h ****     };
  74:../../libDaisy//src/sys/system.h **** 
  75:../../libDaisy//src/sys/system.h ****     /** Bootloader struct for controlling bootloading parameters */
  76:../../libDaisy//src/sys/system.h ****     struct BootInfo
  77:../../libDaisy//src/sys/system.h ****     {
  78:../../libDaisy//src/sys/system.h ****         enum class Type : uint32_t
  79:../../libDaisy//src/sys/system.h ****         {
  80:../../libDaisy//src/sys/system.h ****             INVALID      = 0x00000000,
  81:../../libDaisy//src/sys/system.h ****             JUMP         = 0xDEADBEEF,
  82:../../libDaisy//src/sys/system.h ****             SKIP_TIMEOUT = 0x5AFEB007,
  83:../../libDaisy//src/sys/system.h ****             INF_TIMEOUT  = 0xB0074EFA,
  84:../../libDaisy//src/sys/system.h ****         } status;
  85:../../libDaisy//src/sys/system.h ****         uint32_t data;
  86:../../libDaisy//src/sys/system.h ****         enum class Version : uint32_t
  87:../../libDaisy//src/sys/system.h ****         {
  88:../../libDaisy//src/sys/system.h ****             LT_v6_0 = 0, // Less than v6.0
  89:../../libDaisy//src/sys/system.h ****             NONE,        // No bootloader present
  90:../../libDaisy//src/sys/system.h ****             v6_0,        // v6.0
  91:../../libDaisy//src/sys/system.h ****             v6_1,        // v6.1 or greater
  92:../../libDaisy//src/sys/system.h ****             LAST
  93:../../libDaisy//src/sys/system.h ****         } version;
  94:../../libDaisy//src/sys/system.h ****     };
  95:../../libDaisy//src/sys/system.h **** 
  96:../../libDaisy//src/sys/system.h ****     System() {}
  97:../../libDaisy//src/sys/system.h ****     ~System() {}
  88              		.loc 4 97 5 view .LVU5
  89              		.loc 4 97 5 is_stmt 0 view .LVU6
  90              	.LBE770:
  91              	.LBB771:
  92              	.LBI771:
  93              		.file 5 "../../libDaisy//src/hid/usb.h"
   1:../../libDaisy//src/hid/usb.h **** #pragma once
   2:../../libDaisy//src/hid/usb.h **** #ifndef DSY_HID_USB_H
   3:../../libDaisy//src/hid/usb.h **** #define DSY_HID_USB_H
   4:../../libDaisy//src/hid/usb.h **** #include <stdint.h>
   5:../../libDaisy//src/hid/usb.h **** #include <stdlib.h>
   6:../../libDaisy//src/hid/usb.h **** 
   7:../../libDaisy//src/hid/usb.h **** namespace daisy
   8:../../libDaisy//src/hid/usb.h **** /** @addtogroup human_interface
   9:../../libDaisy//src/hid/usb.h ****     @{
  10:../../libDaisy//src/hid/usb.h **** */
  11:../../libDaisy//src/hid/usb.h **** 
ARM GAS  C:\Users\Grant\AppData\Local\Temp\ccNjaI4C.s 			page 6


  12:../../libDaisy//src/hid/usb.h **** {
  13:../../libDaisy//src/hid/usb.h **** /** 
  14:../../libDaisy//src/hid/usb.h ****     @brief Interface for initializing and using the USB Peripherals on the daisy
  15:../../libDaisy//src/hid/usb.h ****     @author Stephen Hensley
  16:../../libDaisy//src/hid/usb.h ****     @date December 2019
  17:../../libDaisy//src/hid/usb.h **** */
  18:../../libDaisy//src/hid/usb.h **** class UsbHandle
  19:../../libDaisy//src/hid/usb.h **** {
  20:../../libDaisy//src/hid/usb.h ****   public:
  21:../../libDaisy//src/hid/usb.h ****     /** Return values for USBHandle Functions */
  22:../../libDaisy//src/hid/usb.h ****     enum class Result
  23:../../libDaisy//src/hid/usb.h ****     {
  24:../../libDaisy//src/hid/usb.h ****         OK,
  25:../../libDaisy//src/hid/usb.h ****         ERR,
  26:../../libDaisy//src/hid/usb.h ****     };
  27:../../libDaisy//src/hid/usb.h **** 
  28:../../libDaisy//src/hid/usb.h ****     /** Specified which of the two USB Peripherals to initialize. */
  29:../../libDaisy//src/hid/usb.h ****     enum UsbPeriph
  30:../../libDaisy//src/hid/usb.h ****     {
  31:../../libDaisy//src/hid/usb.h ****         FS_INTERNAL, /**< Internal pin */
  32:../../libDaisy//src/hid/usb.h ****         FS_EXTERNAL, /**< FS External D+ pin is Pin 38 (GPIO32). FS External D- pin is Pin 37 (GPIO
  33:../../libDaisy//src/hid/usb.h ****         FS_BOTH,     /**< Both */
  34:../../libDaisy//src/hid/usb.h ****     };
  35:../../libDaisy//src/hid/usb.h **** 
  36:../../libDaisy//src/hid/usb.h **** 
  37:../../libDaisy//src/hid/usb.h ****     /** Function called upon reception of a buffer */
  38:../../libDaisy//src/hid/usb.h ****     typedef void (*ReceiveCallback)(uint8_t* buff, uint32_t* len);
  39:../../libDaisy//src/hid/usb.h **** 
  40:../../libDaisy//src/hid/usb.h ****     UsbHandle() {}
  41:../../libDaisy//src/hid/usb.h **** 
  42:../../libDaisy//src/hid/usb.h ****     ~UsbHandle() {}
  94              		.loc 5 42 5 is_stmt 1 view .LVU7
  95              		.loc 5 42 5 is_stmt 0 view .LVU8
  96              	.LBE771:
  97              	.LBB772:
  98              	.LBI772:
  99              		.file 6 "../../libDaisy//src/per/adc.h"
   1:../../libDaisy//src/per/adc.h **** #pragma once
   2:../../libDaisy//src/per/adc.h **** #ifndef DSY_ADC_H
   3:../../libDaisy//src/per/adc.h **** #define DSY_ADC_H /**< Macro */
   4:../../libDaisy//src/per/adc.h **** #include <stdint.h>
   5:../../libDaisy//src/per/adc.h **** #include <stdlib.h>
   6:../../libDaisy//src/per/adc.h **** #include "daisy_core.h"
   7:../../libDaisy//src/per/adc.h **** #include "per/gpio.h"
   8:../../libDaisy//src/per/adc.h **** 
   9:../../libDaisy//src/per/adc.h **** #define DSY_ADC_MAX_CHANNELS 16 /**< Maximum number of ADC channels */
  10:../../libDaisy//src/per/adc.h **** 
  11:../../libDaisy//src/per/adc.h **** namespace daisy
  12:../../libDaisy//src/per/adc.h **** {
  13:../../libDaisy//src/per/adc.h **** /** @addtogroup per_analog
  14:../../libDaisy//src/per/adc.h ****     @{
  15:../../libDaisy//src/per/adc.h **** */
  16:../../libDaisy//src/per/adc.h **** 
  17:../../libDaisy//src/per/adc.h **** /* While there may not be many configuration options here,
  18:../../libDaisy//src/per/adc.h **** using a struct like this allows us to add more configuration
  19:../../libDaisy//src/per/adc.h **** later without breaking existing functionality.
  20:../../libDaisy//src/per/adc.h **** */
ARM GAS  C:\Users\Grant\AppData\Local\Temp\ccNjaI4C.s 			page 7


  21:../../libDaisy//src/per/adc.h **** 
  22:../../libDaisy//src/per/adc.h **** /** @brief   Configuration Structure for an ADC Channel 
  23:../../libDaisy//src/per/adc.h ****  *  @details This can be used to configure a a single input, 
  24:../../libDaisy//src/per/adc.h ****  *           or a multiplexed input, allowing up to 8 inputs on 
  25:../../libDaisy//src/per/adc.h ****  *           one channel.
  26:../../libDaisy//src/per/adc.h ****  *  @note    Sharing data lines to multiple muxes _is_ possible, but
  27:../../libDaisy//src/per/adc.h ****  *           each channel sharing data lines must be set to the maximum
  28:../../libDaisy//src/per/adc.h ****  *           number of channels, even if some multiplexers have fewer
  29:../../libDaisy//src/per/adc.h ****  *           inputs connected.
  30:../../libDaisy//src/per/adc.h **** */
  31:../../libDaisy//src/per/adc.h **** struct AdcChannelConfig
  32:../../libDaisy//src/per/adc.h **** {
  33:../../libDaisy//src/per/adc.h ****     /** Which pin to use for multiplexing */
  34:../../libDaisy//src/per/adc.h ****     enum MuxPin
  35:../../libDaisy//src/per/adc.h ****     {
  36:../../libDaisy//src/per/adc.h ****         MUX_SEL_0,    /**< & */
  37:../../libDaisy//src/per/adc.h ****         MUX_SEL_1,    /**< & */
  38:../../libDaisy//src/per/adc.h ****         MUX_SEL_2,    /**< & */
  39:../../libDaisy//src/per/adc.h ****         MUX_SEL_LAST, /**< & */
  40:../../libDaisy//src/per/adc.h ****     };
  41:../../libDaisy//src/per/adc.h **** 
  42:../../libDaisy//src/per/adc.h ****     /** \brief per channel conversion speed added to fixed time based on bitdepth, etc. */
  43:../../libDaisy//src/per/adc.h ****     enum ConversionSpeed
  44:../../libDaisy//src/per/adc.h ****     {
  45:../../libDaisy//src/per/adc.h ****         SPEED_1CYCLES_5,
  46:../../libDaisy//src/per/adc.h ****         SPEED_2CYCLES_5,
  47:../../libDaisy//src/per/adc.h ****         SPEED_8CYCLES_5,
  48:../../libDaisy//src/per/adc.h ****         SPEED_16CYCLES_5,
  49:../../libDaisy//src/per/adc.h ****         SPEED_32CYCLES_5,
  50:../../libDaisy//src/per/adc.h ****         SPEED_64CYCLES_5,
  51:../../libDaisy//src/per/adc.h ****         SPEED_387CYCLES_5,
  52:../../libDaisy//src/per/adc.h ****         SPEED_810CYCLES_5,
  53:../../libDaisy//src/per/adc.h ****     };
  54:../../libDaisy//src/per/adc.h **** 
  55:../../libDaisy//src/per/adc.h ****     /** Initializes a single ADC pin as an ADC. 
  56:../../libDaisy//src/per/adc.h ****     \param pin Pin to init.
  57:../../libDaisy//src/per/adc.h ****     \param speed conversion speed for this pin defaults to 8.5 cycles
  58:../../libDaisy//src/per/adc.h ****      */
  59:../../libDaisy//src/per/adc.h ****     void InitSingle(dsy_gpio_pin pin, ConversionSpeed speed = SPEED_8CYCLES_5);
  60:../../libDaisy//src/per/adc.h **** 
  61:../../libDaisy//src/per/adc.h ****     /** 
  62:../../libDaisy//src/per/adc.h ****     Initializes a single ADC pin as a Multiplexed ADC.
  63:../../libDaisy//src/per/adc.h ****     Requires a CD405X Multiplexer connected to the pin.
  64:../../libDaisy//src/per/adc.h ****     You only need to supply the mux pins that are required,
  65:../../libDaisy//src/per/adc.h ****     e.g. a 4052 mux would only require mux_0 and mux_1.
  66:../../libDaisy//src/per/adc.h ****     Internal Callbacks handle the pin addressing.
  67:../../libDaisy//src/per/adc.h ****     \param adc_pin &
  68:../../libDaisy//src/per/adc.h ****     \param mux_channels must be 1-8
  69:../../libDaisy//src/per/adc.h ****     \param mux_0 First mux pin
  70:../../libDaisy//src/per/adc.h ****     \param mux_1 Second mux pin
  71:../../libDaisy//src/per/adc.h ****     \param mux_2 Third mux pin
  72:../../libDaisy//src/per/adc.h ****     \param speed conversion speed for this pin defaults to 8.5 cycles
  73:../../libDaisy//src/per/adc.h ****     */
  74:../../libDaisy//src/per/adc.h ****     void InitMux(dsy_gpio_pin    adc_pin,
  75:../../libDaisy//src/per/adc.h ****                  size_t          mux_channels,
  76:../../libDaisy//src/per/adc.h ****                  dsy_gpio_pin    mux_0,
  77:../../libDaisy//src/per/adc.h ****                  dsy_gpio_pin    mux_1 = {DSY_GPIOX, 0},
ARM GAS  C:\Users\Grant\AppData\Local\Temp\ccNjaI4C.s 			page 8


  78:../../libDaisy//src/per/adc.h ****                  dsy_gpio_pin    mux_2 = {DSY_GPIOX, 0},
  79:../../libDaisy//src/per/adc.h ****                  ConversionSpeed speed = SPEED_8CYCLES_5);
  80:../../libDaisy//src/per/adc.h **** 
  81:../../libDaisy//src/per/adc.h ****     dsy_gpio        pin_;                   /**< & */
  82:../../libDaisy//src/per/adc.h ****     dsy_gpio        mux_pin_[MUX_SEL_LAST]; /**< & */
  83:../../libDaisy//src/per/adc.h ****     uint8_t         mux_channels_;          /**< & */
  84:../../libDaisy//src/per/adc.h ****     ConversionSpeed speed_;
  85:../../libDaisy//src/per/adc.h **** };
  86:../../libDaisy//src/per/adc.h **** 
  87:../../libDaisy//src/per/adc.h **** /**
  88:../../libDaisy//src/per/adc.h ****    @brief Handler for analog to digital conversion
  89:../../libDaisy//src/per/adc.h **** */
  90:../../libDaisy//src/per/adc.h **** class AdcHandle
  91:../../libDaisy//src/per/adc.h **** {
  92:../../libDaisy//src/per/adc.h ****   public:
  93:../../libDaisy//src/per/adc.h ****     /** Supported oversampling amounts */
  94:../../libDaisy//src/per/adc.h ****     enum OverSampling
  95:../../libDaisy//src/per/adc.h ****     {
  96:../../libDaisy//src/per/adc.h ****         OVS_NONE, /**< & */
  97:../../libDaisy//src/per/adc.h ****         OVS_4,    /**< & */
  98:../../libDaisy//src/per/adc.h ****         OVS_8,    /**< & */
  99:../../libDaisy//src/per/adc.h ****         OVS_16,   /**< & */
 100:../../libDaisy//src/per/adc.h ****         OVS_32,   /**< & */
 101:../../libDaisy//src/per/adc.h ****         OVS_64,   /**< & */
 102:../../libDaisy//src/per/adc.h ****         OVS_128,  /**< & */
 103:../../libDaisy//src/per/adc.h ****         OVS_256,  /**< & */
 104:../../libDaisy//src/per/adc.h ****         OVS_512,  /**< & */
 105:../../libDaisy//src/per/adc.h ****         OVS_1024, /**< & */
 106:../../libDaisy//src/per/adc.h ****         OVS_LAST, /**< & */
 107:../../libDaisy//src/per/adc.h ****     };
 108:../../libDaisy//src/per/adc.h **** 
 109:../../libDaisy//src/per/adc.h ****     AdcHandle() {}
 110:../../libDaisy//src/per/adc.h ****     ~AdcHandle() {}
 100              		.loc 6 110 5 is_stmt 1 view .LVU9
 101              		.loc 6 110 5 is_stmt 0 view .LVU10
 102              	.LBE772:
 103              	.LBB773:
 104              	.LBI773:
 105              		.file 7 "../../libDaisy//src/hid/audio.h"
   1:../../libDaisy//src/hid/audio.h **** #ifndef DSY_AUDIO_H
   2:../../libDaisy//src/hid/audio.h **** #define DSY_AUDIO_H /**< & */
   3:../../libDaisy//src/hid/audio.h **** 
   4:../../libDaisy//src/hid/audio.h **** #include "per/sai.h"
   5:../../libDaisy//src/hid/audio.h **** 
   6:../../libDaisy//src/hid/audio.h **** namespace daisy
   7:../../libDaisy//src/hid/audio.h **** {
   8:../../libDaisy//src/hid/audio.h **** /** @brief Audio Engine Handle
   9:../../libDaisy//src/hid/audio.h ****  *  @ingroup audio 
  10:../../libDaisy//src/hid/audio.h ****  *  @details This class allows for higher level access to an audio engine.
  11:../../libDaisy//src/hid/audio.h ****  *           If you're using a SOM like the DaisySeed or DaisyPatchSM (or any 
  12:../../libDaisy//src/hid/audio.h ****  *            board that includes one of those objects) then the intialization
  13:../../libDaisy//src/hid/audio.h ****  *            is already taken  care of.
  14:../../libDaisy//src/hid/audio.h ****  *           If you're setting up your own custom hardware, or need to make changes
  15:../../libDaisy//src/hid/audio.h ****  *           you will have to take the following steps:
  16:../../libDaisy//src/hid/audio.h ****  *             1. Create and Initialize an SaiHandle or two depending on your requirements
  17:../../libDaisy//src/hid/audio.h ****  *             2. Initialize the Audio Handle with the desired settings and the Initialized SaiHand
  18:../../libDaisy//src/hid/audio.h ****  *             3. If the connected codec requires special configuration or initialization, do so
ARM GAS  C:\Users\Grant\AppData\Local\Temp\ccNjaI4C.s 			page 9


  19:../../libDaisy//src/hid/audio.h ****  *             4. Write a callback method using either the AudioCallback or the InterleavingAudioCa
  20:../../libDaisy//src/hid/audio.h ****  *             5. Start the Audio using one of the StartAudio function
  21:../../libDaisy//src/hid/audio.h ****  */
  22:../../libDaisy//src/hid/audio.h **** class AudioHandle
  23:../../libDaisy//src/hid/audio.h **** {
  24:../../libDaisy//src/hid/audio.h ****   public:
  25:../../libDaisy//src/hid/audio.h ****     /** Manually configurable details about the Audio Engine */
  26:../../libDaisy//src/hid/audio.h ****     /** TODO: Figure out how to get samplerate in here. */
  27:../../libDaisy//src/hid/audio.h ****     struct Config
  28:../../libDaisy//src/hid/audio.h ****     {
  29:../../libDaisy//src/hid/audio.h ****         /** number of samples to process per callback */
  30:../../libDaisy//src/hid/audio.h ****         size_t blocksize;
  31:../../libDaisy//src/hid/audio.h **** 
  32:../../libDaisy//src/hid/audio.h ****         /**< Sample rate of audio */
  33:../../libDaisy//src/hid/audio.h ****         SaiHandle::Config::SampleRate samplerate;
  34:../../libDaisy//src/hid/audio.h **** 
  35:../../libDaisy//src/hid/audio.h ****         /** factor for adjustment before and after callback for hardware that may have extra headro
  36:../../libDaisy//src/hid/audio.h ****         float postgain;
  37:../../libDaisy//src/hid/audio.h **** 
  38:../../libDaisy//src/hid/audio.h ****         /** factor for additional one-sided compensation to audio path for hardware that may
  39:../../libDaisy//src/hid/audio.h ****          *  have unequal input/output ranges
  40:../../libDaisy//src/hid/audio.h ****          */
  41:../../libDaisy//src/hid/audio.h ****         float output_compensation;
  42:../../libDaisy//src/hid/audio.h **** 
  43:../../libDaisy//src/hid/audio.h ****         /** Sets default values for config struct */
  44:../../libDaisy//src/hid/audio.h ****         Config()
  45:../../libDaisy//src/hid/audio.h ****         : blocksize(48),
  46:../../libDaisy//src/hid/audio.h ****           samplerate(SaiHandle::Config::SampleRate::SAI_48KHZ),
  47:../../libDaisy//src/hid/audio.h ****           postgain(1.f),
  48:../../libDaisy//src/hid/audio.h ****           output_compensation(1.f)
  49:../../libDaisy//src/hid/audio.h ****         {
  50:../../libDaisy//src/hid/audio.h ****         }
  51:../../libDaisy//src/hid/audio.h ****     };
  52:../../libDaisy//src/hid/audio.h **** 
  53:../../libDaisy//src/hid/audio.h ****     enum class Result
  54:../../libDaisy//src/hid/audio.h ****     {
  55:../../libDaisy//src/hid/audio.h ****         OK,
  56:../../libDaisy//src/hid/audio.h ****         ERR,
  57:../../libDaisy//src/hid/audio.h ****     };
  58:../../libDaisy//src/hid/audio.h **** 
  59:../../libDaisy//src/hid/audio.h ****     /** Non-Interleaving input buffer
  60:../../libDaisy//src/hid/audio.h ****      * Buffer arranged by float[chn][sample] 
  61:../../libDaisy//src/hid/audio.h ****      * const so that the user can't modify the input
  62:../../libDaisy//src/hid/audio.h ****      */
  63:../../libDaisy//src/hid/audio.h ****     typedef const float* const* InputBuffer;
  64:../../libDaisy//src/hid/audio.h **** 
  65:../../libDaisy//src/hid/audio.h ****     /** Non-Interleaving output buffer
  66:../../libDaisy//src/hid/audio.h ****      * Arranged by float[chn][sample] 
  67:../../libDaisy//src/hid/audio.h ****      */
  68:../../libDaisy//src/hid/audio.h ****     typedef float** OutputBuffer;
  69:../../libDaisy//src/hid/audio.h **** 
  70:../../libDaisy//src/hid/audio.h ****     /** Type for a Non-Interleaving audio callback 
  71:../../libDaisy//src/hid/audio.h ****      * Non-Interleaving audio callbacks in daisy will be of this type
  72:../../libDaisy//src/hid/audio.h ****      */
  73:../../libDaisy//src/hid/audio.h ****     typedef void (*AudioCallback)(InputBuffer  in,
  74:../../libDaisy//src/hid/audio.h ****                                   OutputBuffer out,
  75:../../libDaisy//src/hid/audio.h ****                                   size_t       size);
ARM GAS  C:\Users\Grant\AppData\Local\Temp\ccNjaI4C.s 			page 10


  76:../../libDaisy//src/hid/audio.h **** 
  77:../../libDaisy//src/hid/audio.h ****     /** Interleaving Input buffer
  78:../../libDaisy//src/hid/audio.h ****      ** audio is prepared as { L0, R0, L1, R1, . . . LN, RN }]
  79:../../libDaisy//src/hid/audio.h ****      ** this is const, as the user shouldn't modify it
  80:../../libDaisy//src/hid/audio.h ****     */
  81:../../libDaisy//src/hid/audio.h ****     typedef const float* InterleavingInputBuffer;
  82:../../libDaisy//src/hid/audio.h **** 
  83:../../libDaisy//src/hid/audio.h ****     /** Interleaving Output buffer 
  84:../../libDaisy//src/hid/audio.h ****      ** audio is prepared as { L0, R0, L1, R1, . . . LN, RN }
  85:../../libDaisy//src/hid/audio.h ****     */
  86:../../libDaisy//src/hid/audio.h ****     typedef float* InterleavingOutputBuffer;
  87:../../libDaisy//src/hid/audio.h **** 
  88:../../libDaisy//src/hid/audio.h ****     /** Interleaving Audio Callback 
  89:../../libDaisy//src/hid/audio.h ****      * Interleaving audio callbacks in daisy must be of this type
  90:../../libDaisy//src/hid/audio.h ****      */
  91:../../libDaisy//src/hid/audio.h ****     typedef void (*InterleavingAudioCallback)(InterleavingInputBuffer  in,
  92:../../libDaisy//src/hid/audio.h ****                                               InterleavingOutputBuffer out,
  93:../../libDaisy//src/hid/audio.h ****                                               size_t                   size);
  94:../../libDaisy//src/hid/audio.h **** 
  95:../../libDaisy//src/hid/audio.h ****     AudioHandle() : pimpl_(nullptr) {}
  96:../../libDaisy//src/hid/audio.h ****     ~AudioHandle() {}
 106              		.loc 7 96 5 is_stmt 1 view .LVU11
 107              		.loc 7 96 5 is_stmt 0 view .LVU12
 108              	.LBE773:
 109              		.loc 3 22 19 view .LVU13
 110 0000 7047     		bx	lr
 111              		.cfi_endproc
 112              	.LFE2555:
 114              		.weak	_ZN5daisy9DaisySeedD1Ev
 115              		.thumb_set _ZN5daisy9DaisySeedD1Ev,_ZN5daisy9DaisySeedD2Ev
 116 0002 00BF     		.section	.text._ZN8TapeLoopD2Ev,"axG",%progbits,_ZN8TapeLoopD5Ev,comdat
 117              		.align	1
 118              		.p2align 2,,3
 119              		.weak	_ZN8TapeLoopD2Ev
 120              		.syntax unified
 121              		.thumb
 122              		.thumb_func
 123              		.fpu fpv5-d16
 125              	_ZN8TapeLoopD2Ev:
 126              	.LVL3:
 127              	.LFB4716:
 128              		.file 8 "TapeLoop.h"
   1:TapeLoop.h    **** #include "daisysp.h"
   2:TapeLoop.h    **** #include "daisy.h"
   3:TapeLoop.h    **** #include "daisy_seed.h"
   4:TapeLoop.h    **** #include <stdint.h>
   5:TapeLoop.h    **** #include <stdlib.h>
   6:TapeLoop.h    **** #include <math.h>
   7:TapeLoop.h    **** 
   8:TapeLoop.h    **** using namespace daisysp;
   9:TapeLoop.h    **** using namespace daisy;
  10:TapeLoop.h    **** 
  11:TapeLoop.h    **** class TapeLoop
 129              		.loc 8 11 7 is_stmt 1 view -0
 130              		.cfi_startproc
 131              		@ args = 0, pretend = 0, frame = 0
 132              		@ frame_needed = 0, uses_anonymous_args = 0
ARM GAS  C:\Users\Grant\AppData\Local\Temp\ccNjaI4C.s 			page 11


 133              		@ link register save eliminated.
 134              	.LBB774:
 135              	.LBI774:
 136              		.file 9 "../../DaisySP//Source/Noise/whitenoise.h"
   1:../../DaisySP//Source/Noise/whitenoise.h **** /*
   2:../../DaisySP//Source/Noise/whitenoise.h **** Copyright (c) 2020 Electrosmith, Corp
   3:../../DaisySP//Source/Noise/whitenoise.h **** 
   4:../../DaisySP//Source/Noise/whitenoise.h **** Use of this source code is governed by an MIT-style
   5:../../DaisySP//Source/Noise/whitenoise.h **** license that can be found in the LICENSE file or at
   6:../../DaisySP//Source/Noise/whitenoise.h **** https://opensource.org/licenses/MIT.
   7:../../DaisySP//Source/Noise/whitenoise.h **** */
   8:../../DaisySP//Source/Noise/whitenoise.h **** 
   9:../../DaisySP//Source/Noise/whitenoise.h **** #pragma once
  10:../../DaisySP//Source/Noise/whitenoise.h **** #ifndef DSY_WHITENOISE_H
  11:../../DaisySP//Source/Noise/whitenoise.h **** #define DSY_WHITENOISE_H
  12:../../DaisySP//Source/Noise/whitenoise.h **** #include <stdint.h>
  13:../../DaisySP//Source/Noise/whitenoise.h **** #ifdef __cplusplus
  14:../../DaisySP//Source/Noise/whitenoise.h **** namespace daisysp
  15:../../DaisySP//Source/Noise/whitenoise.h **** {
  16:../../DaisySP//Source/Noise/whitenoise.h **** /** fast white noise generator
  17:../../DaisySP//Source/Noise/whitenoise.h **** 
  18:../../DaisySP//Source/Noise/whitenoise.h ****     I think this came from musicdsp.org at some point
  19:../../DaisySP//Source/Noise/whitenoise.h **** */
  20:../../DaisySP//Source/Noise/whitenoise.h **** class WhiteNoise
  21:../../DaisySP//Source/Noise/whitenoise.h **** {
  22:../../DaisySP//Source/Noise/whitenoise.h ****   public:
  23:../../DaisySP//Source/Noise/whitenoise.h ****     WhiteNoise() {}
  24:../../DaisySP//Source/Noise/whitenoise.h ****     ~WhiteNoise() {}
 137              		.loc 9 24 5 view .LVU15
 138              		.loc 9 24 5 is_stmt 0 view .LVU16
 139              	.LBE774:
 140              		.loc 8 11 7 view .LVU17
 141 0000 7047     		bx	lr
 142              		.cfi_endproc
 143              	.LFE4716:
 145              		.weak	_ZN8TapeLoopD1Ev
 146              		.thumb_set _ZN8TapeLoopD1Ev,_ZN8TapeLoopD2Ev
 147 0002 00BF     		.section	.text.__tcf_0,"ax",%progbits
 148              		.align	1
 149              		.p2align 2,,3
 150              		.syntax unified
 151              		.thumb
 152              		.thumb_func
 153              		.fpu fpv5-d16
 155              	__tcf_0:
 156              	.LFB5449:
 157              		.file 10 "TapeLooper.cpp"
   1:TapeLooper.cpp **** #include "daisy_seed.h"
   2:TapeLooper.cpp **** #include "daisysp.h"
   3:TapeLooper.cpp **** #include "System.h"
   4:TapeLooper.cpp **** #include "TapeLoop.h"
   5:TapeLooper.cpp **** #include <stdlib.h>
   6:TapeLooper.cpp **** #include <math.h>
   7:TapeLooper.cpp **** 
   8:TapeLooper.cpp **** using namespace daisy;
   9:TapeLooper.cpp **** using namespace daisysp;
  10:TapeLooper.cpp **** using namespace daisy::seed;
ARM GAS  C:\Users\Grant\AppData\Local\Temp\ccNjaI4C.s 			page 12


  11:TapeLooper.cpp **** 
  12:TapeLooper.cpp **** 
  13:TapeLooper.cpp **** DaisySeed        hw;
  14:TapeLooper.cpp **** const int        num_adc_channels = 3;
  15:TapeLooper.cpp **** AdcChannelConfig adc_config[num_adc_channels];
  16:TapeLooper.cpp **** enum AdcChannel
  17:TapeLooper.cpp **** {
  18:TapeLooper.cpp ****     MUX         = 0,
  19:TapeLooper.cpp ****     QUALITY_POT = 1,
  20:TapeLooper.cpp ****     WARBLE_POT  = 2
  21:TapeLooper.cpp **** };
  22:TapeLooper.cpp **** 
  23:TapeLooper.cpp **** enum MUX_IDX
  24:TapeLooper.cpp **** {
  25:TapeLooper.cpp ****     VOL1 = 3,
  26:TapeLooper.cpp ****     VOL2 = 0,
  27:TapeLooper.cpp ****     VOL3 = 1,
  28:TapeLooper.cpp ****     VOL4 = 2,
  29:TapeLooper.cpp ****     TC1  = 5,
  30:TapeLooper.cpp ****     TC2  = 7,
  31:TapeLooper.cpp ****     TC3  = 6,
  32:TapeLooper.cpp ****     TC4  = 4
  33:TapeLooper.cpp **** 
  34:TapeLooper.cpp **** };
  35:TapeLooper.cpp **** 
  36:TapeLooper.cpp **** Pin MUX_A_PIN   = D18;
  37:TapeLooper.cpp **** Pin MUX_B_PIN   = D19;
  38:TapeLooper.cpp **** Pin MUX_C_PIN   = D20;
  39:TapeLooper.cpp **** Pin MUX_OUT_PIN = A2;
  40:TapeLooper.cpp **** Pin MUX_INH_PIN = D21;
  41:TapeLooper.cpp **** 
  42:TapeLooper.cpp **** //TODO need to define MUX pins 1-8
  43:TapeLooper.cpp **** 
  44:TapeLooper.cpp **** Pin QUALITY_PIN = A0;
  45:TapeLooper.cpp **** Pin WARBLE_PIN  = A1;
  46:TapeLooper.cpp **** 
  47:TapeLooper.cpp **** Pin trk1Sel_pin = D1;
  48:TapeLooper.cpp **** Pin trk2Sel_pin = D2;
  49:TapeLooper.cpp **** Pin trk3Sel_pin = D3;
  50:TapeLooper.cpp **** Pin trk4Sel_pin = D4;
  51:TapeLooper.cpp **** 
  52:TapeLooper.cpp **** Pin trk1LED_pin = D5;
  53:TapeLooper.cpp **** Pin trk2LED_pin = D6;
  54:TapeLooper.cpp **** Pin trk3LED_pin = D7;
  55:TapeLooper.cpp **** Pin trk4LED_pin = D8;
  56:TapeLooper.cpp **** 
  57:TapeLooper.cpp **** Pin ply_pin = D11;
  58:TapeLooper.cpp **** Pin rcd_pin = D12;
  59:TapeLooper.cpp **** 
  60:TapeLooper.cpp **** Switch track1_sel;
  61:TapeLooper.cpp **** Switch track2_sel;
  62:TapeLooper.cpp **** Switch track3_sel;
  63:TapeLooper.cpp **** Switch track4_sel;
  64:TapeLooper.cpp **** 
  65:TapeLooper.cpp **** 
  66:TapeLooper.cpp **** Switch play_pause_button;
  67:TapeLooper.cpp **** Switch record_button;
ARM GAS  C:\Users\Grant\AppData\Local\Temp\ccNjaI4C.s 			page 13


  68:TapeLooper.cpp **** 
  69:TapeLooper.cpp **** Led   track1_LED;
  70:TapeLooper.cpp **** float track1_LED_Brightness = 1.f;
  71:TapeLooper.cpp **** Led   track2_LED;
  72:TapeLooper.cpp **** float track2_LED_Brightness = 1.f;
  73:TapeLooper.cpp **** Led   track3_LED;
  74:TapeLooper.cpp **** float track3_LED_Brightness = 1.f;
  75:TapeLooper.cpp **** Led   track4_LED;
  76:TapeLooper.cpp **** float track4_LED_Brightness = 1.f;
  77:TapeLooper.cpp **** 
  78:TapeLooper.cpp **** Led LEDs[4]{};
 158              		.loc 10 78 5 is_stmt 1 view -0
 159              		.cfi_startproc
 160              		@ args = 0, pretend = 0, frame = 0
 161              		@ frame_needed = 0, uses_anonymous_args = 0
 162              		@ link register save eliminated.
 163              		.loc 10 78 5 is_stmt 0 view .LVU19
 164 0000 7047     		bx	lr
 165              		.cfi_endproc
 166              	.LFE5449:
 168 0002 00BF     		.section	.text.__tcf_1,"ax",%progbits
 169              		.align	1
 170              		.p2align 2,,3
 171              		.syntax unified
 172              		.thumb
 173              		.thumb_func
 174              		.fpu fpv5-d16
 176              	__tcf_1:
 177              	.LFB5454:
 178              		.cfi_startproc
 179              		@ args = 0, pretend = 0, frame = 0
 180              		@ frame_needed = 0, uses_anonymous_args = 0
 181              		@ link register save eliminated.
 182 0000 7047     		bx	lr
 183              		.cfi_endproc
 184              	.LFE5454:
 186 0002 00BF     		.section	.text._Z13AudioCallbackPKPKfPPfj,"ax",%progbits
 187              		.align	1
 188              		.p2align 2,,3
 189              		.global	_Z13AudioCallbackPKPKfPPfj
 190              		.syntax unified
 191              		.thumb
 192              		.thumb_func
 193              		.fpu fpv5-d16
 195              	_Z13AudioCallbackPKPKfPPfj:
 196              	.LVL4:
 197              	.LFB4727:
  79:TapeLooper.cpp **** 
  80:TapeLooper.cpp **** float DSY_SDRAM_BSS track1_loc[2][TapeLoop::MAX_SIZE];
  81:TapeLooper.cpp **** TapeLoop            track1(track1_loc);
  82:TapeLooper.cpp **** float DSY_SDRAM_BSS track2_loc[2][TapeLoop::MAX_SIZE];
  83:TapeLooper.cpp **** TapeLoop            track2(track2_loc);
  84:TapeLooper.cpp **** float DSY_SDRAM_BSS track3_loc[2][TapeLoop::MAX_SIZE];
  85:TapeLooper.cpp **** TapeLoop            track3(track3_loc);
  86:TapeLooper.cpp **** float DSY_SDRAM_BSS track4_loc[2][TapeLoop::MAX_SIZE];
  87:TapeLooper.cpp **** TapeLoop            track4(track4_loc);
  88:TapeLooper.cpp **** 
ARM GAS  C:\Users\Grant\AppData\Local\Temp\ccNjaI4C.s 			page 14


  89:TapeLooper.cpp **** int active_track = 0;
  90:TapeLooper.cpp **** 
  91:TapeLooper.cpp **** TapeLoop tracks[4] = {track1, track2, track3, track4}; //Expand these
  92:TapeLooper.cpp **** 
  93:TapeLooper.cpp **** enum TRACK_MODES
  94:TapeLooper.cpp **** {
  95:TapeLooper.cpp ****     TRACK_SPEED = 0,
  96:TapeLooper.cpp ****     TRACK_FADE  = 1,
  97:TapeLooper.cpp **** 
  98:TapeLooper.cpp **** };
  99:TapeLooper.cpp **** 
 100:TapeLooper.cpp **** 
 101:TapeLooper.cpp **** float quality = 1.f;
 102:TapeLooper.cpp **** float warble  = 0.f;
 103:TapeLooper.cpp **** 
 104:TapeLooper.cpp **** void tracks_Init()
 105:TapeLooper.cpp **** {
 106:TapeLooper.cpp ****     track1.Init(hw.AudioSampleRate());
 107:TapeLooper.cpp ****     track2.Init(hw.AudioSampleRate());
 108:TapeLooper.cpp ****     track3.Init(hw.AudioSampleRate());
 109:TapeLooper.cpp ****     track4.Init(hw.AudioSampleRate());
 110:TapeLooper.cpp **** }
 111:TapeLooper.cpp **** 
 112:TapeLooper.cpp **** /* 
 113:TapeLooper.cpp **** 
 114:TapeLooper.cpp **** */
 115:TapeLooper.cpp **** 
 116:TapeLooper.cpp **** float saturate_and_compress(float value)
 117:TapeLooper.cpp **** { //TODO tweak this???
 118:TapeLooper.cpp ****     float saturation = 30 * ((1 - quality) * (1.f - 0.1) + 0.1);
 119:TapeLooper.cpp ****     float saturated  = atan(saturation * value);
 120:TapeLooper.cpp ****     return saturated;
 121:TapeLooper.cpp **** }
 122:TapeLooper.cpp **** 
 123:TapeLooper.cpp **** void peripherals_Init()
 124:TapeLooper.cpp **** {
 125:TapeLooper.cpp ****     //INS
 126:TapeLooper.cpp ****     track1_sel.Init(trk1Sel_pin,
 127:TapeLooper.cpp ****                     0.0f,
 128:TapeLooper.cpp ****                     Switch::Type::TYPE_MOMENTARY,
 129:TapeLooper.cpp ****                     Switch::Polarity::POLARITY_INVERTED,
 130:TapeLooper.cpp ****                     Switch::Pull::PULL_UP);
 131:TapeLooper.cpp ****     track2_sel.Init(trk2Sel_pin,
 132:TapeLooper.cpp ****                     0.0f,
 133:TapeLooper.cpp ****                     Switch::Type::TYPE_MOMENTARY,
 134:TapeLooper.cpp ****                     Switch::Polarity::POLARITY_INVERTED,
 135:TapeLooper.cpp ****                     Switch::Pull::PULL_UP);
 136:TapeLooper.cpp ****     track3_sel.Init(trk3Sel_pin,
 137:TapeLooper.cpp ****                     0.0f,
 138:TapeLooper.cpp ****                     Switch::Type::TYPE_MOMENTARY,
 139:TapeLooper.cpp ****                     Switch::Polarity::POLARITY_INVERTED,
 140:TapeLooper.cpp ****                     Switch::Pull::PULL_UP);
 141:TapeLooper.cpp ****     track4_sel.Init(trk4Sel_pin,
 142:TapeLooper.cpp ****                     0.0f,
 143:TapeLooper.cpp ****                     Switch::Type::TYPE_MOMENTARY,
 144:TapeLooper.cpp ****                     Switch::Polarity::POLARITY_INVERTED,
 145:TapeLooper.cpp ****                     Switch::Pull::PULL_UP);
ARM GAS  C:\Users\Grant\AppData\Local\Temp\ccNjaI4C.s 			page 15


 146:TapeLooper.cpp ****     play_pause_button.Init(ply_pin, 0.f, Switch::Type::TYPE_TOGGLE, Switch::Polarity::POLARITY_NORM
 147:TapeLooper.cpp ****     record_button.Init(rcd_pin, 0.f, Switch::Type::TYPE_TOGGLE, Switch::Polarity::POLARITY_NORMAL, 
 148:TapeLooper.cpp **** 
 149:TapeLooper.cpp ****     //OUTS
 150:TapeLooper.cpp ****     track1_LED.Init(trk1LED_pin, false, 2000.f);
 151:TapeLooper.cpp ****     track2_LED.Init(trk2LED_pin, false);
 152:TapeLooper.cpp ****     track3_LED.Init(trk3LED_pin, false);
 153:TapeLooper.cpp ****     track4_LED.Init(trk4LED_pin, false);
 154:TapeLooper.cpp ****     LEDs[0] = track1_LED;
 155:TapeLooper.cpp ****     LEDs[1] = track2_LED;
 156:TapeLooper.cpp ****     LEDs[2] = track3_LED;
 157:TapeLooper.cpp ****     LEDs[3] = track4_LED;
 158:TapeLooper.cpp **** 
 159:TapeLooper.cpp ****     //Display
 160:TapeLooper.cpp ****     //ADC
 161:TapeLooper.cpp ****     adc_config[MUX].InitMux(MUX_OUT_PIN, 8, MUX_A_PIN, MUX_B_PIN, MUX_C_PIN);
 162:TapeLooper.cpp ****     adc_config[QUALITY_POT].InitSingle(QUALITY_PIN);
 163:TapeLooper.cpp ****     adc_config[WARBLE_POT].InitSingle(WARBLE_PIN);
 164:TapeLooper.cpp **** 
 165:TapeLooper.cpp ****     hw.adc.Init(adc_config, num_adc_channels);
 166:TapeLooper.cpp ****     hw.adc.Start();
 167:TapeLooper.cpp **** }
 168:TapeLooper.cpp **** 
 169:TapeLooper.cpp **** void blink(int led, int nTimes)
 170:TapeLooper.cpp **** {
 171:TapeLooper.cpp ****     while(nTimes + 1 > 0)
 172:TapeLooper.cpp ****     {
 173:TapeLooper.cpp ****         LEDs[led].Set(0.f);
 174:TapeLooper.cpp ****         LEDs[led].Update();
 175:TapeLooper.cpp ****         hw.DelayMs(100);
 176:TapeLooper.cpp ****         LEDs[led].Set(1.f);
 177:TapeLooper.cpp ****         LEDs[led].Update();
 178:TapeLooper.cpp ****         hw.DelayMs(100);
 179:TapeLooper.cpp ****         nTimes--;
 180:TapeLooper.cpp ****     }
 181:TapeLooper.cpp **** }
 182:TapeLooper.cpp **** 
 183:TapeLooper.cpp **** void update_track(int t, float tc)
 184:TapeLooper.cpp **** {
 185:TapeLooper.cpp **** 	play_pause_button.Debounce();
 186:TapeLooper.cpp ****     switch(tracks[t].get_Input_Mode())
 187:TapeLooper.cpp ****     {
 188:TapeLooper.cpp ****         case TRACK_SPEED:
 189:TapeLooper.cpp ****             tracks[t].set_Playback_Speed(play_pause_button.Pressed() ? tc : 0.5);
 190:TapeLooper.cpp ****             break;
 191:TapeLooper.cpp **** 
 192:TapeLooper.cpp **** 			case TRACK_FADE: tracks[t].set_Fade(tc); break;
 193:TapeLooper.cpp ****     }
 194:TapeLooper.cpp **** }
 195:TapeLooper.cpp **** 
 196:TapeLooper.cpp **** 
 197:TapeLooper.cpp **** void update_buttons()
 198:TapeLooper.cpp **** {
 199:TapeLooper.cpp ****     track1_sel.Debounce();
 200:TapeLooper.cpp ****     if(track1_sel.RisingEdge())
 201:TapeLooper.cpp ****     {
 202:TapeLooper.cpp ****         if(active_track == 0)
ARM GAS  C:\Users\Grant\AppData\Local\Temp\ccNjaI4C.s 			page 16


 203:TapeLooper.cpp ****         {
 204:TapeLooper.cpp ****             tracks[active_track].next_Input_Mode();
 205:TapeLooper.cpp ****             blink(0, tracks[active_track].get_Input_Mode());
 206:TapeLooper.cpp ****         }
 207:TapeLooper.cpp ****         else
 208:TapeLooper.cpp ****         {
 209:TapeLooper.cpp ****             active_track = 0;
 210:TapeLooper.cpp ****         }
 211:TapeLooper.cpp ****     }
 212:TapeLooper.cpp **** 
 213:TapeLooper.cpp ****     track2_sel.Debounce();
 214:TapeLooper.cpp ****     if(track2_sel.RisingEdge())
 215:TapeLooper.cpp ****     {
 216:TapeLooper.cpp ****         if(active_track == 1)
 217:TapeLooper.cpp ****         {
 218:TapeLooper.cpp ****             tracks[active_track].next_Input_Mode();
 219:TapeLooper.cpp ****             blink(1, tracks[active_track].get_Input_Mode());
 220:TapeLooper.cpp ****         }
 221:TapeLooper.cpp ****         else
 222:TapeLooper.cpp ****         {
 223:TapeLooper.cpp ****             active_track = 1;
 224:TapeLooper.cpp ****         }
 225:TapeLooper.cpp ****     }
 226:TapeLooper.cpp **** 
 227:TapeLooper.cpp ****     track3_sel.Debounce();
 228:TapeLooper.cpp ****     if(track3_sel.RisingEdge())
 229:TapeLooper.cpp ****     {
 230:TapeLooper.cpp ****         if(active_track == 2)
 231:TapeLooper.cpp ****         {
 232:TapeLooper.cpp ****             tracks[active_track].next_Input_Mode();
 233:TapeLooper.cpp ****             blink(2, tracks[active_track].get_Input_Mode());
 234:TapeLooper.cpp ****         }
 235:TapeLooper.cpp ****         else
 236:TapeLooper.cpp ****         {
 237:TapeLooper.cpp ****             active_track = 2;
 238:TapeLooper.cpp ****         }
 239:TapeLooper.cpp ****     }
 240:TapeLooper.cpp **** 
 241:TapeLooper.cpp ****     track4_sel.Debounce();
 242:TapeLooper.cpp ****     if(track4_sel.RisingEdge())
 243:TapeLooper.cpp ****     {
 244:TapeLooper.cpp ****         if(active_track == 3)
 245:TapeLooper.cpp ****         {
 246:TapeLooper.cpp ****             tracks[active_track].next_Input_Mode();
 247:TapeLooper.cpp ****             blink(3, tracks[active_track].get_Input_Mode());
 248:TapeLooper.cpp ****         }
 249:TapeLooper.cpp ****         else
 250:TapeLooper.cpp ****         {
 251:TapeLooper.cpp ****             active_track = 3;
 252:TapeLooper.cpp ****         }
 253:TapeLooper.cpp ****     }
 254:TapeLooper.cpp **** }
 255:TapeLooper.cpp **** 
 256:TapeLooper.cpp **** void update_pots()
 257:TapeLooper.cpp **** { //TODO fix this for PCB implementation
 258:TapeLooper.cpp **** 
 259:TapeLooper.cpp **** tracks[0].set_Volume(hw.adc.GetMuxFloat(MUX, VOL1));
ARM GAS  C:\Users\Grant\AppData\Local\Temp\ccNjaI4C.s 			page 17


 260:TapeLooper.cpp **** tracks[1].set_Volume(hw.adc.GetMuxFloat(MUX, VOL2));
 261:TapeLooper.cpp **** tracks[2].set_Volume(hw.adc.GetMuxFloat(MUX, VOL3));
 262:TapeLooper.cpp **** tracks[3].set_Volume(hw.adc.GetMuxFloat(MUX, VOL4));
 263:TapeLooper.cpp **** 
 264:TapeLooper.cpp **** 
 265:TapeLooper.cpp **** update_track(0, (1.f - hw.adc.GetMuxFloat(MUX, TC1)));
 266:TapeLooper.cpp **** update_track(1, (1.f - hw.adc.GetMuxFloat(MUX, TC2)));
 267:TapeLooper.cpp **** update_track(2, (1.f - hw.adc.GetMuxFloat(MUX, TC3)));
 268:TapeLooper.cpp **** update_track(3, (1.f - hw.adc.GetMuxFloat(MUX, TC4)));
 269:TapeLooper.cpp ****     
 270:TapeLooper.cpp ****     quality = hw.adc.GetFloat(QUALITY_POT);
 271:TapeLooper.cpp ****     warble  = hw.adc.GetFloat(WARBLE_POT);
 272:TapeLooper.cpp **** }
 273:TapeLooper.cpp **** 
 274:TapeLooper.cpp **** void update_LEDs()
 275:TapeLooper.cpp **** {
 276:TapeLooper.cpp ****     int speed = 2;
 277:TapeLooper.cpp ****     for(int i = 0; i < 4; i++)
 278:TapeLooper.cpp ****     {
 279:TapeLooper.cpp ****         LEDs[i].Set(sin(tracks[i].get_Read_Head() * speed / hw.AudioSampleRate()) + 1.1);
 280:TapeLooper.cpp ****         LEDs[i].Update();
 281:TapeLooper.cpp ****     }
 282:TapeLooper.cpp **** }
 283:TapeLooper.cpp **** 
 284:TapeLooper.cpp **** void update()
 285:TapeLooper.cpp **** {
 286:TapeLooper.cpp ****     update_buttons();
 287:TapeLooper.cpp ****     update_pots();
 288:TapeLooper.cpp ****     update_LEDs();
 289:TapeLooper.cpp **** }
 290:TapeLooper.cpp **** 
 291:TapeLooper.cpp **** // std::vector<float> fade(std::vector<float> samps){
 292:TapeLooper.cpp **** 
 293:TapeLooper.cpp **** // }
 294:TapeLooper.cpp **** 
 295:TapeLooper.cpp **** // std::vector<float> mix_tracks(std::vector<float> t1, std::vector<float> t2, std::vector<float> t
 296:TapeLooper.cpp **** // 	float left = t1[0] + t2[0] + t3[0] + t4[0];
 297:TapeLooper.cpp **** // 	float right = t1[1] + t2[1] + t3[1] + t4[1];
 298:TapeLooper.cpp **** // 	return {left/5.f, right/5.f};
 299:TapeLooper.cpp **** // }
 300:TapeLooper.cpp **** 
 301:TapeLooper.cpp **** 
 302:TapeLooper.cpp **** void AudioCallback(AudioHandle::InputBuffer  in,
 303:TapeLooper.cpp ****                    AudioHandle::OutputBuffer out,
 304:TapeLooper.cpp ****                    size_t                    size)
 305:TapeLooper.cpp **** {
 198              		.loc 10 305 1 is_stmt 1 view -0
 199              		.cfi_startproc
 200              		@ args = 0, pretend = 0, frame = 56
 201              		@ frame_needed = 0, uses_anonymous_args = 0
 306:TapeLooper.cpp ****     for(size_t i = 0; i < size; i++)
 202              		.loc 10 306 5 view .LVU21
 203              	.LBB1188:
 204              		.loc 10 306 25 view .LVU22
 205              	.LBE1188:
 305:TapeLooper.cpp ****     for(size_t i = 0; i < size; i++)
 206              		.loc 10 305 1 is_stmt 0 view .LVU23
ARM GAS  C:\Users\Grant\AppData\Local\Temp\ccNjaI4C.s 			page 18


 207 0000 2DE9F04F 		push	{r4, r5, r6, r7, r8, r9, r10, fp, lr}
 208              		.cfi_def_cfa_offset 36
 209              		.cfi_offset 4, -36
 210              		.cfi_offset 5, -32
 211              		.cfi_offset 6, -28
 212              		.cfi_offset 7, -24
 213              		.cfi_offset 8, -20
 214              		.cfi_offset 9, -16
 215              		.cfi_offset 10, -12
 216              		.cfi_offset 11, -8
 217              		.cfi_offset 14, -4
 218 0004 2DED088B 		vpush.64	{d8, d9, d10, d11}
 219              		.cfi_def_cfa_offset 68
 220              		.cfi_offset 80, -68
 221              		.cfi_offset 81, -64
 222              		.cfi_offset 82, -60
 223              		.cfi_offset 83, -56
 224              		.cfi_offset 84, -52
 225              		.cfi_offset 85, -48
 226              		.cfi_offset 86, -44
 227              		.cfi_offset 87, -40
 228 0008 8FB0     		sub	sp, sp, #60
 229              		.cfi_def_cfa_offset 128
 305:TapeLooper.cpp ****     for(size_t i = 0; i < size; i++)
 230              		.loc 10 305 1 view .LVU24
 231 000a 0490     		str	r0, [sp, #16]
 232 000c 0191     		str	r1, [sp, #4]
 233              	.LBB1918:
 234              		.loc 10 306 25 view .LVU25
 235 000e 0592     		str	r2, [sp, #20]
 236 0010 002A     		cmp	r2, #0
 237 0012 00F0EE81 		beq	.L8
 238              		.loc 10 306 16 view .LVU26
 239 0016 0023     		movs	r3, #0
 240 0018 E34E     		ldr	r6, .L42+24
 241 001a 0293     		str	r3, [sp, #8]
 242              	.LVL5:
 243              	.L9:
 244              	.LBB1189:
 307:TapeLooper.cpp ****     {
 308:TapeLooper.cpp ****         tracks[0].advanceTapeHeads();
 245              		.loc 10 308 9 is_stmt 1 view .LVU27
 246              	.LBB1190:
 247              	.LBI1190:
  12:TapeLoop.h    **** {
  13:TapeLoop.h    ****   public:
  14:TapeLoop.h    ****     static const int MAX_SIZE
  15:TapeLoop.h    ****         = 32000
  16:TapeLoop.h    ****           * 10; //TODO 32000 samples/s * 60s/m * 2m = 2 minutes of sample at 32khz.
  17:TapeLoop.h    ****     float SAMPLE_RATE;
  18:TapeLoop.h    **** 
  19:TapeLoop.h    ****     TapeLoop(float (&track_location)[2][MAX_SIZE]) : track(track_location) {}
  20:TapeLoop.h    **** 
  21:TapeLoop.h    ****     void Init(float sample_rate)
  22:TapeLoop.h    ****     {
  23:TapeLoop.h    ****         SAMPLE_RATE = sample_rate;
  24:TapeLoop.h    **** 
ARM GAS  C:\Users\Grant\AppData\Local\Temp\ccNjaI4C.s 			page 19


  25:TapeLoop.h    ****         blank_track();
  26:TapeLoop.h    **** 
  27:TapeLoop.h    ****         tape_noise.Init();
  28:TapeLoop.h    ****         tape_noise.SetAmp(tape_noise_amt);
  29:TapeLoop.h    **** 
  30:TapeLoop.h    ****         rdm          = std::default_random_engine(System::GetNow());
  31:TapeLoop.h    ****         dist_uniform = std::uniform_real_distribution<float>(0.f, 1.f);
  32:TapeLoop.h    ****         dist_normal
  33:TapeLoop.h    ****             = std::normal_distribution<float>(demag_size_mean, demag_size_sd);
  34:TapeLoop.h    ****     }
  35:TapeLoop.h    **** 
  36:TapeLoop.h    ****     void update_tape_speed(){
  37:TapeLoop.h    ****         float time_const = 48000 * 0.1; 
  38:TapeLoop.h    ****         tape_speed    = tape_speed + (tape_speed_target - tape_speed) / time_const;
  39:TapeLoop.h    ****     }
  40:TapeLoop.h    **** 
  41:TapeLoop.h    ****     void advanceTapeHeads()
 248              		.loc 8 41 10 view .LVU28
 249              	.LBB1191:
  42:TapeLoop.h    ****     {
  43:TapeLoop.h    ****        update_tape_speed();
 250              		.loc 8 43 8 view .LVU29
 251              	.LBB1192:
 252              	.LBI1192:
  36:TapeLoop.h    ****         float time_const = 48000 * 0.1; 
 253              		.loc 8 36 10 view .LVU30
 254              	.LBB1193:
  37:TapeLoop.h    ****         tape_speed    = tape_speed + (tape_speed_target - tape_speed) / time_const;
 255              		.loc 8 37 9 view .LVU31
  38:TapeLoop.h    ****     }
 256              		.loc 8 38 9 view .LVU32
  38:TapeLoop.h    ****     }
 257              		.loc 8 38 25 is_stmt 0 view .LVU33
 258 001c D6ED0C6A 		vldr.32	s13, [r6, #48]
 259              	.LBE1193:
 260              	.LBE1192:
  44:TapeLoop.h    **** 
  45:TapeLoop.h    ****         read_head       = fmod((read_head + tape_speed), static_cast<float>(MAX_SIZE));
  46:TapeLoop.h    ****         last_write_head = write_head;
  47:TapeLoop.h    ****         write_head      = fmod((read_head - 1.), static_cast<float>(MAX_SIZE));
 261              		.loc 8 47 31 view .LVU34
 262 0020 B7EE008B 		vmov.f64	d8, #1.0e+0
 263              	.LBB1197:
 264              	.LBB1194:
  38:TapeLoop.h    ****     }
 265              		.loc 8 38 57 view .LVU35
 266 0024 96ED0B7A 		vldr.32	s14, [r6, #44]
 267              	.LBE1194:
 268              	.LBE1197:
 269              	.LBE1191:
 270              	.LBE1190:
 271              	.LBB1213:
 272              	.LBB1214:
 273              	.LBB1215:
 274              	.LBB1216:
 275              	.LBB1217:
 276              		.file 11 "c:\\program files\\daisytoolchain\\arm-none-eabi\\include\\c++\\10.2.1\\bits\\stl_vector
ARM GAS  C:\Users\Grant\AppData\Local\Temp\ccNjaI4C.s 			page 20


   1:c:\program files\daisytoolchain\arm-none-eabi\include\c++\10.2.1\bits\stl_vector.h **** // Vector implementation -*- C++ -*-
   2:c:\program files\daisytoolchain\arm-none-eabi\include\c++\10.2.1\bits\stl_vector.h **** 
   3:c:\program files\daisytoolchain\arm-none-eabi\include\c++\10.2.1\bits\stl_vector.h **** // Copyright (C) 2001-2020 Free Software Foundation, Inc.
   4:c:\program files\daisytoolchain\arm-none-eabi\include\c++\10.2.1\bits\stl_vector.h **** //
   5:c:\program files\daisytoolchain\arm-none-eabi\include\c++\10.2.1\bits\stl_vector.h **** // This file is part of the GNU ISO C++ Library.  This library is free
   6:c:\program files\daisytoolchain\arm-none-eabi\include\c++\10.2.1\bits\stl_vector.h **** // software; you can redistribute it and/or modify it under the
   7:c:\program files\daisytoolchain\arm-none-eabi\include\c++\10.2.1\bits\stl_vector.h **** // terms of the GNU General Public License as published by the
   8:c:\program files\daisytoolchain\arm-none-eabi\include\c++\10.2.1\bits\stl_vector.h **** // Free Software Foundation; either version 3, or (at your option)
   9:c:\program files\daisytoolchain\arm-none-eabi\include\c++\10.2.1\bits\stl_vector.h **** // any later version.
  10:c:\program files\daisytoolchain\arm-none-eabi\include\c++\10.2.1\bits\stl_vector.h **** 
  11:c:\program files\daisytoolchain\arm-none-eabi\include\c++\10.2.1\bits\stl_vector.h **** // This library is distributed in the hope that it will be useful,
  12:c:\program files\daisytoolchain\arm-none-eabi\include\c++\10.2.1\bits\stl_vector.h **** // but WITHOUT ANY WARRANTY; without even the implied warranty of
  13:c:\program files\daisytoolchain\arm-none-eabi\include\c++\10.2.1\bits\stl_vector.h **** // MERCHANTABILITY or FITNESS FOR A PARTICULAR PURPOSE.  See the
  14:c:\program files\daisytoolchain\arm-none-eabi\include\c++\10.2.1\bits\stl_vector.h **** // GNU General Public License for more details.
  15:c:\program files\daisytoolchain\arm-none-eabi\include\c++\10.2.1\bits\stl_vector.h **** 
  16:c:\program files\daisytoolchain\arm-none-eabi\include\c++\10.2.1\bits\stl_vector.h **** // Under Section 7 of GPL version 3, you are granted additional
  17:c:\program files\daisytoolchain\arm-none-eabi\include\c++\10.2.1\bits\stl_vector.h **** // permissions described in the GCC Runtime Library Exception, version
  18:c:\program files\daisytoolchain\arm-none-eabi\include\c++\10.2.1\bits\stl_vector.h **** // 3.1, as published by the Free Software Foundation.
  19:c:\program files\daisytoolchain\arm-none-eabi\include\c++\10.2.1\bits\stl_vector.h **** 
  20:c:\program files\daisytoolchain\arm-none-eabi\include\c++\10.2.1\bits\stl_vector.h **** // You should have received a copy of the GNU General Public License and
  21:c:\program files\daisytoolchain\arm-none-eabi\include\c++\10.2.1\bits\stl_vector.h **** // a copy of the GCC Runtime Library Exception along with this program;
  22:c:\program files\daisytoolchain\arm-none-eabi\include\c++\10.2.1\bits\stl_vector.h **** // see the files COPYING3 and COPYING.RUNTIME respectively.  If not, see
  23:c:\program files\daisytoolchain\arm-none-eabi\include\c++\10.2.1\bits\stl_vector.h **** // <http://www.gnu.org/licenses/>.
  24:c:\program files\daisytoolchain\arm-none-eabi\include\c++\10.2.1\bits\stl_vector.h **** 
  25:c:\program files\daisytoolchain\arm-none-eabi\include\c++\10.2.1\bits\stl_vector.h **** /*
  26:c:\program files\daisytoolchain\arm-none-eabi\include\c++\10.2.1\bits\stl_vector.h ****  *
  27:c:\program files\daisytoolchain\arm-none-eabi\include\c++\10.2.1\bits\stl_vector.h ****  * Copyright (c) 1994
  28:c:\program files\daisytoolchain\arm-none-eabi\include\c++\10.2.1\bits\stl_vector.h ****  * Hewlett-Packard Company
  29:c:\program files\daisytoolchain\arm-none-eabi\include\c++\10.2.1\bits\stl_vector.h ****  *
  30:c:\program files\daisytoolchain\arm-none-eabi\include\c++\10.2.1\bits\stl_vector.h ****  * Permission to use, copy, modify, distribute and sell this software
  31:c:\program files\daisytoolchain\arm-none-eabi\include\c++\10.2.1\bits\stl_vector.h ****  * and its documentation for any purpose is hereby granted without fee,
  32:c:\program files\daisytoolchain\arm-none-eabi\include\c++\10.2.1\bits\stl_vector.h ****  * provided that the above copyright notice appear in all copies and
  33:c:\program files\daisytoolchain\arm-none-eabi\include\c++\10.2.1\bits\stl_vector.h ****  * that both that copyright notice and this permission notice appear
  34:c:\program files\daisytoolchain\arm-none-eabi\include\c++\10.2.1\bits\stl_vector.h ****  * in supporting documentation.  Hewlett-Packard Company makes no
  35:c:\program files\daisytoolchain\arm-none-eabi\include\c++\10.2.1\bits\stl_vector.h ****  * representations about the suitability of this software for any
  36:c:\program files\daisytoolchain\arm-none-eabi\include\c++\10.2.1\bits\stl_vector.h ****  * purpose.  It is provided "as is" without express or implied warranty.
  37:c:\program files\daisytoolchain\arm-none-eabi\include\c++\10.2.1\bits\stl_vector.h ****  *
  38:c:\program files\daisytoolchain\arm-none-eabi\include\c++\10.2.1\bits\stl_vector.h ****  *
  39:c:\program files\daisytoolchain\arm-none-eabi\include\c++\10.2.1\bits\stl_vector.h ****  * Copyright (c) 1996
  40:c:\program files\daisytoolchain\arm-none-eabi\include\c++\10.2.1\bits\stl_vector.h ****  * Silicon Graphics Computer Systems, Inc.
  41:c:\program files\daisytoolchain\arm-none-eabi\include\c++\10.2.1\bits\stl_vector.h ****  *
  42:c:\program files\daisytoolchain\arm-none-eabi\include\c++\10.2.1\bits\stl_vector.h ****  * Permission to use, copy, modify, distribute and sell this software
  43:c:\program files\daisytoolchain\arm-none-eabi\include\c++\10.2.1\bits\stl_vector.h ****  * and its documentation for any purpose is hereby granted without fee,
  44:c:\program files\daisytoolchain\arm-none-eabi\include\c++\10.2.1\bits\stl_vector.h ****  * provided that the above copyright notice appear in all copies and
  45:c:\program files\daisytoolchain\arm-none-eabi\include\c++\10.2.1\bits\stl_vector.h ****  * that both that copyright notice and this permission notice appear
  46:c:\program files\daisytoolchain\arm-none-eabi\include\c++\10.2.1\bits\stl_vector.h ****  * in supporting documentation.  Silicon Graphics makes no
  47:c:\program files\daisytoolchain\arm-none-eabi\include\c++\10.2.1\bits\stl_vector.h ****  * representations about the suitability of this  software for any
  48:c:\program files\daisytoolchain\arm-none-eabi\include\c++\10.2.1\bits\stl_vector.h ****  * purpose.  It is provided "as is" without express or implied warranty.
  49:c:\program files\daisytoolchain\arm-none-eabi\include\c++\10.2.1\bits\stl_vector.h ****  */
  50:c:\program files\daisytoolchain\arm-none-eabi\include\c++\10.2.1\bits\stl_vector.h **** 
  51:c:\program files\daisytoolchain\arm-none-eabi\include\c++\10.2.1\bits\stl_vector.h **** /** @file bits/stl_vector.h
  52:c:\program files\daisytoolchain\arm-none-eabi\include\c++\10.2.1\bits\stl_vector.h ****  *  This is an internal header file, included by other library headers.
  53:c:\program files\daisytoolchain\arm-none-eabi\include\c++\10.2.1\bits\stl_vector.h ****  *  Do not attempt to use it directly. @headername{vector}
  54:c:\program files\daisytoolchain\arm-none-eabi\include\c++\10.2.1\bits\stl_vector.h ****  */
  55:c:\program files\daisytoolchain\arm-none-eabi\include\c++\10.2.1\bits\stl_vector.h **** 
  56:c:\program files\daisytoolchain\arm-none-eabi\include\c++\10.2.1\bits\stl_vector.h **** #ifndef _STL_VECTOR_H
  57:c:\program files\daisytoolchain\arm-none-eabi\include\c++\10.2.1\bits\stl_vector.h **** #define _STL_VECTOR_H 1
ARM GAS  C:\Users\Grant\AppData\Local\Temp\ccNjaI4C.s 			page 21


  58:c:\program files\daisytoolchain\arm-none-eabi\include\c++\10.2.1\bits\stl_vector.h **** 
  59:c:\program files\daisytoolchain\arm-none-eabi\include\c++\10.2.1\bits\stl_vector.h **** #include <bits/stl_iterator_base_funcs.h>
  60:c:\program files\daisytoolchain\arm-none-eabi\include\c++\10.2.1\bits\stl_vector.h **** #include <bits/functexcept.h>
  61:c:\program files\daisytoolchain\arm-none-eabi\include\c++\10.2.1\bits\stl_vector.h **** #include <bits/concept_check.h>
  62:c:\program files\daisytoolchain\arm-none-eabi\include\c++\10.2.1\bits\stl_vector.h **** #if __cplusplus >= 201103L
  63:c:\program files\daisytoolchain\arm-none-eabi\include\c++\10.2.1\bits\stl_vector.h **** #include <initializer_list>
  64:c:\program files\daisytoolchain\arm-none-eabi\include\c++\10.2.1\bits\stl_vector.h **** #endif
  65:c:\program files\daisytoolchain\arm-none-eabi\include\c++\10.2.1\bits\stl_vector.h **** #if __cplusplus > 201703L
  66:c:\program files\daisytoolchain\arm-none-eabi\include\c++\10.2.1\bits\stl_vector.h **** # include <compare>
  67:c:\program files\daisytoolchain\arm-none-eabi\include\c++\10.2.1\bits\stl_vector.h **** #endif
  68:c:\program files\daisytoolchain\arm-none-eabi\include\c++\10.2.1\bits\stl_vector.h **** 
  69:c:\program files\daisytoolchain\arm-none-eabi\include\c++\10.2.1\bits\stl_vector.h **** #include <debug/assertions.h>
  70:c:\program files\daisytoolchain\arm-none-eabi\include\c++\10.2.1\bits\stl_vector.h **** 
  71:c:\program files\daisytoolchain\arm-none-eabi\include\c++\10.2.1\bits\stl_vector.h **** #if _GLIBCXX_SANITIZE_STD_ALLOCATOR && _GLIBCXX_SANITIZE_VECTOR
  72:c:\program files\daisytoolchain\arm-none-eabi\include\c++\10.2.1\bits\stl_vector.h **** extern "C" void
  73:c:\program files\daisytoolchain\arm-none-eabi\include\c++\10.2.1\bits\stl_vector.h **** __sanitizer_annotate_contiguous_container(const void*, const void*,
  74:c:\program files\daisytoolchain\arm-none-eabi\include\c++\10.2.1\bits\stl_vector.h **** 					  const void*, const void*);
  75:c:\program files\daisytoolchain\arm-none-eabi\include\c++\10.2.1\bits\stl_vector.h **** #endif
  76:c:\program files\daisytoolchain\arm-none-eabi\include\c++\10.2.1\bits\stl_vector.h **** 
  77:c:\program files\daisytoolchain\arm-none-eabi\include\c++\10.2.1\bits\stl_vector.h **** namespace std _GLIBCXX_VISIBILITY(default)
  78:c:\program files\daisytoolchain\arm-none-eabi\include\c++\10.2.1\bits\stl_vector.h **** {
  79:c:\program files\daisytoolchain\arm-none-eabi\include\c++\10.2.1\bits\stl_vector.h **** _GLIBCXX_BEGIN_NAMESPACE_VERSION
  80:c:\program files\daisytoolchain\arm-none-eabi\include\c++\10.2.1\bits\stl_vector.h **** _GLIBCXX_BEGIN_NAMESPACE_CONTAINER
  81:c:\program files\daisytoolchain\arm-none-eabi\include\c++\10.2.1\bits\stl_vector.h **** 
  82:c:\program files\daisytoolchain\arm-none-eabi\include\c++\10.2.1\bits\stl_vector.h ****   /// See bits/stl_deque.h's _Deque_base for an explanation.
  83:c:\program files\daisytoolchain\arm-none-eabi\include\c++\10.2.1\bits\stl_vector.h ****   template<typename _Tp, typename _Alloc>
  84:c:\program files\daisytoolchain\arm-none-eabi\include\c++\10.2.1\bits\stl_vector.h ****     struct _Vector_base
  85:c:\program files\daisytoolchain\arm-none-eabi\include\c++\10.2.1\bits\stl_vector.h ****     {
  86:c:\program files\daisytoolchain\arm-none-eabi\include\c++\10.2.1\bits\stl_vector.h ****       typedef typename __gnu_cxx::__alloc_traits<_Alloc>::template
  87:c:\program files\daisytoolchain\arm-none-eabi\include\c++\10.2.1\bits\stl_vector.h **** 	rebind<_Tp>::other _Tp_alloc_type;
  88:c:\program files\daisytoolchain\arm-none-eabi\include\c++\10.2.1\bits\stl_vector.h ****       typedef typename __gnu_cxx::__alloc_traits<_Tp_alloc_type>::pointer
  89:c:\program files\daisytoolchain\arm-none-eabi\include\c++\10.2.1\bits\stl_vector.h ****        	pointer;
  90:c:\program files\daisytoolchain\arm-none-eabi\include\c++\10.2.1\bits\stl_vector.h **** 
  91:c:\program files\daisytoolchain\arm-none-eabi\include\c++\10.2.1\bits\stl_vector.h ****       struct _Vector_impl_data
  92:c:\program files\daisytoolchain\arm-none-eabi\include\c++\10.2.1\bits\stl_vector.h ****       {
  93:c:\program files\daisytoolchain\arm-none-eabi\include\c++\10.2.1\bits\stl_vector.h **** 	pointer _M_start;
  94:c:\program files\daisytoolchain\arm-none-eabi\include\c++\10.2.1\bits\stl_vector.h **** 	pointer _M_finish;
  95:c:\program files\daisytoolchain\arm-none-eabi\include\c++\10.2.1\bits\stl_vector.h **** 	pointer _M_end_of_storage;
  96:c:\program files\daisytoolchain\arm-none-eabi\include\c++\10.2.1\bits\stl_vector.h **** 
  97:c:\program files\daisytoolchain\arm-none-eabi\include\c++\10.2.1\bits\stl_vector.h **** 	_Vector_impl_data() _GLIBCXX_NOEXCEPT
  98:c:\program files\daisytoolchain\arm-none-eabi\include\c++\10.2.1\bits\stl_vector.h **** 	: _M_start(), _M_finish(), _M_end_of_storage()
 277              		.loc 11 98 47 view .LVU36
 278 0028 4FF0000A 		mov	r10, #0
 279              	.LBE1217:
 280              	.LBE1216:
 281              	.LBE1215:
 282              	.LBE1214:
 283              	.LBE1213:
 284              	.LBB1231:
 285              	.LBB1210:
 286              	.LBB1198:
 287              	.LBB1195:
  38:TapeLoop.h    ****     }
 288              		.loc 8 38 71 view .LVU37
 289 002c 9FEDDF9A 		vldr.32	s18, .L42+28
  38:TapeLoop.h    ****     }
 290              		.loc 8 38 57 view .LVU38
ARM GAS  C:\Users\Grant\AppData\Local\Temp\ccNjaI4C.s 			page 22


 291 0030 37EE667A 		vsub.f32	s14, s14, s13
 292              	.LBE1195:
 293              	.LBE1198:
  45:TapeLoop.h    ****         last_write_head = write_head;
 294              		.loc 8 45 31 view .LVU39
 295 0034 96ED060A 		vldr.32	s0, [r6, #24]
 296              	.LBB1199:
 297              	.LBB1200:
 298              		.file 12 "c:\\program files\\daisytoolchain\\arm-none-eabi\\include\\c++\\10.2.1\\cmath"
   1:c:\program files\daisytoolchain\arm-none-eabi\include\c++\10.2.1\cmath **** // -*- C++ -*- C forwarding header.
   2:c:\program files\daisytoolchain\arm-none-eabi\include\c++\10.2.1\cmath **** 
   3:c:\program files\daisytoolchain\arm-none-eabi\include\c++\10.2.1\cmath **** // Copyright (C) 1997-2020 Free Software Foundation, Inc.
   4:c:\program files\daisytoolchain\arm-none-eabi\include\c++\10.2.1\cmath **** //
   5:c:\program files\daisytoolchain\arm-none-eabi\include\c++\10.2.1\cmath **** // This file is part of the GNU ISO C++ Library.  This library is free
   6:c:\program files\daisytoolchain\arm-none-eabi\include\c++\10.2.1\cmath **** // software; you can redistribute it and/or modify it under the
   7:c:\program files\daisytoolchain\arm-none-eabi\include\c++\10.2.1\cmath **** // terms of the GNU General Public License as published by the
   8:c:\program files\daisytoolchain\arm-none-eabi\include\c++\10.2.1\cmath **** // Free Software Foundation; either version 3, or (at your option)
   9:c:\program files\daisytoolchain\arm-none-eabi\include\c++\10.2.1\cmath **** // any later version.
  10:c:\program files\daisytoolchain\arm-none-eabi\include\c++\10.2.1\cmath **** 
  11:c:\program files\daisytoolchain\arm-none-eabi\include\c++\10.2.1\cmath **** // This library is distributed in the hope that it will be useful,
  12:c:\program files\daisytoolchain\arm-none-eabi\include\c++\10.2.1\cmath **** // but WITHOUT ANY WARRANTY; without even the implied warranty of
  13:c:\program files\daisytoolchain\arm-none-eabi\include\c++\10.2.1\cmath **** // MERCHANTABILITY or FITNESS FOR A PARTICULAR PURPOSE.  See the
  14:c:\program files\daisytoolchain\arm-none-eabi\include\c++\10.2.1\cmath **** // GNU General Public License for more details.
  15:c:\program files\daisytoolchain\arm-none-eabi\include\c++\10.2.1\cmath **** 
  16:c:\program files\daisytoolchain\arm-none-eabi\include\c++\10.2.1\cmath **** // Under Section 7 of GPL version 3, you are granted additional
  17:c:\program files\daisytoolchain\arm-none-eabi\include\c++\10.2.1\cmath **** // permissions described in the GCC Runtime Library Exception, version
  18:c:\program files\daisytoolchain\arm-none-eabi\include\c++\10.2.1\cmath **** // 3.1, as published by the Free Software Foundation.
  19:c:\program files\daisytoolchain\arm-none-eabi\include\c++\10.2.1\cmath **** 
  20:c:\program files\daisytoolchain\arm-none-eabi\include\c++\10.2.1\cmath **** // You should have received a copy of the GNU General Public License and
  21:c:\program files\daisytoolchain\arm-none-eabi\include\c++\10.2.1\cmath **** // a copy of the GCC Runtime Library Exception along with this program;
  22:c:\program files\daisytoolchain\arm-none-eabi\include\c++\10.2.1\cmath **** // see the files COPYING3 and COPYING.RUNTIME respectively.  If not, see
  23:c:\program files\daisytoolchain\arm-none-eabi\include\c++\10.2.1\cmath **** // <http://www.gnu.org/licenses/>.
  24:c:\program files\daisytoolchain\arm-none-eabi\include\c++\10.2.1\cmath **** 
  25:c:\program files\daisytoolchain\arm-none-eabi\include\c++\10.2.1\cmath **** /** @file include/cmath
  26:c:\program files\daisytoolchain\arm-none-eabi\include\c++\10.2.1\cmath ****  *  This is a Standard C++ Library file.  You should @c \#include this file
  27:c:\program files\daisytoolchain\arm-none-eabi\include\c++\10.2.1\cmath ****  *  in your programs, rather than any of the @a *.h implementation files.
  28:c:\program files\daisytoolchain\arm-none-eabi\include\c++\10.2.1\cmath ****  *
  29:c:\program files\daisytoolchain\arm-none-eabi\include\c++\10.2.1\cmath ****  *  This is the C++ version of the Standard C Library header @c math.h,
  30:c:\program files\daisytoolchain\arm-none-eabi\include\c++\10.2.1\cmath ****  *  and its contents are (mostly) the same as that header, but are all
  31:c:\program files\daisytoolchain\arm-none-eabi\include\c++\10.2.1\cmath ****  *  contained in the namespace @c std (except for names which are defined
  32:c:\program files\daisytoolchain\arm-none-eabi\include\c++\10.2.1\cmath ****  *  as macros in C).
  33:c:\program files\daisytoolchain\arm-none-eabi\include\c++\10.2.1\cmath ****  */
  34:c:\program files\daisytoolchain\arm-none-eabi\include\c++\10.2.1\cmath **** 
  35:c:\program files\daisytoolchain\arm-none-eabi\include\c++\10.2.1\cmath **** //
  36:c:\program files\daisytoolchain\arm-none-eabi\include\c++\10.2.1\cmath **** // ISO C++ 14882: 26.5  C library
  37:c:\program files\daisytoolchain\arm-none-eabi\include\c++\10.2.1\cmath **** //
  38:c:\program files\daisytoolchain\arm-none-eabi\include\c++\10.2.1\cmath **** 
  39:c:\program files\daisytoolchain\arm-none-eabi\include\c++\10.2.1\cmath **** #pragma GCC system_header
  40:c:\program files\daisytoolchain\arm-none-eabi\include\c++\10.2.1\cmath **** 
  41:c:\program files\daisytoolchain\arm-none-eabi\include\c++\10.2.1\cmath **** #include <bits/c++config.h>
  42:c:\program files\daisytoolchain\arm-none-eabi\include\c++\10.2.1\cmath **** #include <bits/cpp_type_traits.h>
  43:c:\program files\daisytoolchain\arm-none-eabi\include\c++\10.2.1\cmath **** #include <ext/type_traits.h>
  44:c:\program files\daisytoolchain\arm-none-eabi\include\c++\10.2.1\cmath **** #define _GLIBCXX_INCLUDE_NEXT_C_HEADERS
  45:c:\program files\daisytoolchain\arm-none-eabi\include\c++\10.2.1\cmath **** #include_next <math.h>
  46:c:\program files\daisytoolchain\arm-none-eabi\include\c++\10.2.1\cmath **** #undef _GLIBCXX_INCLUDE_NEXT_C_HEADERS
  47:c:\program files\daisytoolchain\arm-none-eabi\include\c++\10.2.1\cmath **** #include <bits/std_abs.h>
  48:c:\program files\daisytoolchain\arm-none-eabi\include\c++\10.2.1\cmath **** 
ARM GAS  C:\Users\Grant\AppData\Local\Temp\ccNjaI4C.s 			page 23


  49:c:\program files\daisytoolchain\arm-none-eabi\include\c++\10.2.1\cmath **** #ifndef _GLIBCXX_CMATH
  50:c:\program files\daisytoolchain\arm-none-eabi\include\c++\10.2.1\cmath **** #define _GLIBCXX_CMATH 1
  51:c:\program files\daisytoolchain\arm-none-eabi\include\c++\10.2.1\cmath **** 
  52:c:\program files\daisytoolchain\arm-none-eabi\include\c++\10.2.1\cmath **** // Get rid of those macros defined in <math.h> in lieu of real functions.
  53:c:\program files\daisytoolchain\arm-none-eabi\include\c++\10.2.1\cmath **** #undef div
  54:c:\program files\daisytoolchain\arm-none-eabi\include\c++\10.2.1\cmath **** #undef acos
  55:c:\program files\daisytoolchain\arm-none-eabi\include\c++\10.2.1\cmath **** #undef asin
  56:c:\program files\daisytoolchain\arm-none-eabi\include\c++\10.2.1\cmath **** #undef atan
  57:c:\program files\daisytoolchain\arm-none-eabi\include\c++\10.2.1\cmath **** #undef atan2
  58:c:\program files\daisytoolchain\arm-none-eabi\include\c++\10.2.1\cmath **** #undef ceil
  59:c:\program files\daisytoolchain\arm-none-eabi\include\c++\10.2.1\cmath **** #undef cos
  60:c:\program files\daisytoolchain\arm-none-eabi\include\c++\10.2.1\cmath **** #undef cosh
  61:c:\program files\daisytoolchain\arm-none-eabi\include\c++\10.2.1\cmath **** #undef exp
  62:c:\program files\daisytoolchain\arm-none-eabi\include\c++\10.2.1\cmath **** #undef fabs
  63:c:\program files\daisytoolchain\arm-none-eabi\include\c++\10.2.1\cmath **** #undef floor
  64:c:\program files\daisytoolchain\arm-none-eabi\include\c++\10.2.1\cmath **** #undef fmod
  65:c:\program files\daisytoolchain\arm-none-eabi\include\c++\10.2.1\cmath **** #undef frexp
  66:c:\program files\daisytoolchain\arm-none-eabi\include\c++\10.2.1\cmath **** #undef ldexp
  67:c:\program files\daisytoolchain\arm-none-eabi\include\c++\10.2.1\cmath **** #undef log
  68:c:\program files\daisytoolchain\arm-none-eabi\include\c++\10.2.1\cmath **** #undef log10
  69:c:\program files\daisytoolchain\arm-none-eabi\include\c++\10.2.1\cmath **** #undef modf
  70:c:\program files\daisytoolchain\arm-none-eabi\include\c++\10.2.1\cmath **** #undef pow
  71:c:\program files\daisytoolchain\arm-none-eabi\include\c++\10.2.1\cmath **** #undef sin
  72:c:\program files\daisytoolchain\arm-none-eabi\include\c++\10.2.1\cmath **** #undef sinh
  73:c:\program files\daisytoolchain\arm-none-eabi\include\c++\10.2.1\cmath **** #undef sqrt
  74:c:\program files\daisytoolchain\arm-none-eabi\include\c++\10.2.1\cmath **** #undef tan
  75:c:\program files\daisytoolchain\arm-none-eabi\include\c++\10.2.1\cmath **** #undef tanh
  76:c:\program files\daisytoolchain\arm-none-eabi\include\c++\10.2.1\cmath **** 
  77:c:\program files\daisytoolchain\arm-none-eabi\include\c++\10.2.1\cmath **** extern "C++"
  78:c:\program files\daisytoolchain\arm-none-eabi\include\c++\10.2.1\cmath **** {
  79:c:\program files\daisytoolchain\arm-none-eabi\include\c++\10.2.1\cmath **** namespace std _GLIBCXX_VISIBILITY(default)
  80:c:\program files\daisytoolchain\arm-none-eabi\include\c++\10.2.1\cmath **** {
  81:c:\program files\daisytoolchain\arm-none-eabi\include\c++\10.2.1\cmath **** _GLIBCXX_BEGIN_NAMESPACE_VERSION
  82:c:\program files\daisytoolchain\arm-none-eabi\include\c++\10.2.1\cmath **** 
  83:c:\program files\daisytoolchain\arm-none-eabi\include\c++\10.2.1\cmath ****   using ::acos;
  84:c:\program files\daisytoolchain\arm-none-eabi\include\c++\10.2.1\cmath **** 
  85:c:\program files\daisytoolchain\arm-none-eabi\include\c++\10.2.1\cmath **** #ifndef __CORRECT_ISO_CPP_MATH_H_PROTO
  86:c:\program files\daisytoolchain\arm-none-eabi\include\c++\10.2.1\cmath ****   inline _GLIBCXX_CONSTEXPR float
  87:c:\program files\daisytoolchain\arm-none-eabi\include\c++\10.2.1\cmath ****   acos(float __x)
  88:c:\program files\daisytoolchain\arm-none-eabi\include\c++\10.2.1\cmath ****   { return __builtin_acosf(__x); }
  89:c:\program files\daisytoolchain\arm-none-eabi\include\c++\10.2.1\cmath **** 
  90:c:\program files\daisytoolchain\arm-none-eabi\include\c++\10.2.1\cmath ****   inline _GLIBCXX_CONSTEXPR long double
  91:c:\program files\daisytoolchain\arm-none-eabi\include\c++\10.2.1\cmath ****   acos(long double __x)
  92:c:\program files\daisytoolchain\arm-none-eabi\include\c++\10.2.1\cmath ****   { return __builtin_acosl(__x); }
  93:c:\program files\daisytoolchain\arm-none-eabi\include\c++\10.2.1\cmath **** #endif
  94:c:\program files\daisytoolchain\arm-none-eabi\include\c++\10.2.1\cmath **** 
  95:c:\program files\daisytoolchain\arm-none-eabi\include\c++\10.2.1\cmath ****   template<typename _Tp>
  96:c:\program files\daisytoolchain\arm-none-eabi\include\c++\10.2.1\cmath ****     inline _GLIBCXX_CONSTEXPR
  97:c:\program files\daisytoolchain\arm-none-eabi\include\c++\10.2.1\cmath ****     typename __gnu_cxx::__enable_if<__is_integer<_Tp>::__value, 
  98:c:\program files\daisytoolchain\arm-none-eabi\include\c++\10.2.1\cmath ****                                     double>::__type
  99:c:\program files\daisytoolchain\arm-none-eabi\include\c++\10.2.1\cmath ****     acos(_Tp __x)
 100:c:\program files\daisytoolchain\arm-none-eabi\include\c++\10.2.1\cmath ****     { return __builtin_acos(__x); }
 101:c:\program files\daisytoolchain\arm-none-eabi\include\c++\10.2.1\cmath **** 
 102:c:\program files\daisytoolchain\arm-none-eabi\include\c++\10.2.1\cmath ****   using ::asin;
 103:c:\program files\daisytoolchain\arm-none-eabi\include\c++\10.2.1\cmath **** 
 104:c:\program files\daisytoolchain\arm-none-eabi\include\c++\10.2.1\cmath **** #ifndef __CORRECT_ISO_CPP_MATH_H_PROTO
 105:c:\program files\daisytoolchain\arm-none-eabi\include\c++\10.2.1\cmath ****   inline _GLIBCXX_CONSTEXPR float
ARM GAS  C:\Users\Grant\AppData\Local\Temp\ccNjaI4C.s 			page 24


 106:c:\program files\daisytoolchain\arm-none-eabi\include\c++\10.2.1\cmath ****   asin(float __x)
 107:c:\program files\daisytoolchain\arm-none-eabi\include\c++\10.2.1\cmath ****   { return __builtin_asinf(__x); }
 108:c:\program files\daisytoolchain\arm-none-eabi\include\c++\10.2.1\cmath **** 
 109:c:\program files\daisytoolchain\arm-none-eabi\include\c++\10.2.1\cmath ****   inline _GLIBCXX_CONSTEXPR long double
 110:c:\program files\daisytoolchain\arm-none-eabi\include\c++\10.2.1\cmath ****   asin(long double __x)
 111:c:\program files\daisytoolchain\arm-none-eabi\include\c++\10.2.1\cmath ****   { return __builtin_asinl(__x); }
 112:c:\program files\daisytoolchain\arm-none-eabi\include\c++\10.2.1\cmath **** #endif
 113:c:\program files\daisytoolchain\arm-none-eabi\include\c++\10.2.1\cmath **** 
 114:c:\program files\daisytoolchain\arm-none-eabi\include\c++\10.2.1\cmath ****   template<typename _Tp>
 115:c:\program files\daisytoolchain\arm-none-eabi\include\c++\10.2.1\cmath ****     inline _GLIBCXX_CONSTEXPR
 116:c:\program files\daisytoolchain\arm-none-eabi\include\c++\10.2.1\cmath ****     typename __gnu_cxx::__enable_if<__is_integer<_Tp>::__value,
 117:c:\program files\daisytoolchain\arm-none-eabi\include\c++\10.2.1\cmath ****                                     double>::__type
 118:c:\program files\daisytoolchain\arm-none-eabi\include\c++\10.2.1\cmath ****     asin(_Tp __x)
 119:c:\program files\daisytoolchain\arm-none-eabi\include\c++\10.2.1\cmath ****     { return __builtin_asin(__x); }
 120:c:\program files\daisytoolchain\arm-none-eabi\include\c++\10.2.1\cmath **** 
 121:c:\program files\daisytoolchain\arm-none-eabi\include\c++\10.2.1\cmath ****   using ::atan;
 122:c:\program files\daisytoolchain\arm-none-eabi\include\c++\10.2.1\cmath **** 
 123:c:\program files\daisytoolchain\arm-none-eabi\include\c++\10.2.1\cmath **** #ifndef __CORRECT_ISO_CPP_MATH_H_PROTO
 124:c:\program files\daisytoolchain\arm-none-eabi\include\c++\10.2.1\cmath ****   inline _GLIBCXX_CONSTEXPR float
 125:c:\program files\daisytoolchain\arm-none-eabi\include\c++\10.2.1\cmath ****   atan(float __x)
 126:c:\program files\daisytoolchain\arm-none-eabi\include\c++\10.2.1\cmath ****   { return __builtin_atanf(__x); }
 127:c:\program files\daisytoolchain\arm-none-eabi\include\c++\10.2.1\cmath **** 
 128:c:\program files\daisytoolchain\arm-none-eabi\include\c++\10.2.1\cmath ****   inline _GLIBCXX_CONSTEXPR long double
 129:c:\program files\daisytoolchain\arm-none-eabi\include\c++\10.2.1\cmath ****   atan(long double __x)
 130:c:\program files\daisytoolchain\arm-none-eabi\include\c++\10.2.1\cmath ****   { return __builtin_atanl(__x); }
 131:c:\program files\daisytoolchain\arm-none-eabi\include\c++\10.2.1\cmath **** #endif
 132:c:\program files\daisytoolchain\arm-none-eabi\include\c++\10.2.1\cmath **** 
 133:c:\program files\daisytoolchain\arm-none-eabi\include\c++\10.2.1\cmath ****   template<typename _Tp>
 134:c:\program files\daisytoolchain\arm-none-eabi\include\c++\10.2.1\cmath ****     inline _GLIBCXX_CONSTEXPR
 135:c:\program files\daisytoolchain\arm-none-eabi\include\c++\10.2.1\cmath ****     typename __gnu_cxx::__enable_if<__is_integer<_Tp>::__value,
 136:c:\program files\daisytoolchain\arm-none-eabi\include\c++\10.2.1\cmath ****                                     double>::__type
 137:c:\program files\daisytoolchain\arm-none-eabi\include\c++\10.2.1\cmath ****     atan(_Tp __x)
 138:c:\program files\daisytoolchain\arm-none-eabi\include\c++\10.2.1\cmath ****     { return __builtin_atan(__x); }
 139:c:\program files\daisytoolchain\arm-none-eabi\include\c++\10.2.1\cmath **** 
 140:c:\program files\daisytoolchain\arm-none-eabi\include\c++\10.2.1\cmath ****   using ::atan2;
 141:c:\program files\daisytoolchain\arm-none-eabi\include\c++\10.2.1\cmath **** 
 142:c:\program files\daisytoolchain\arm-none-eabi\include\c++\10.2.1\cmath **** #ifndef __CORRECT_ISO_CPP_MATH_H_PROTO
 143:c:\program files\daisytoolchain\arm-none-eabi\include\c++\10.2.1\cmath ****   inline _GLIBCXX_CONSTEXPR float
 144:c:\program files\daisytoolchain\arm-none-eabi\include\c++\10.2.1\cmath ****   atan2(float __y, float __x)
 145:c:\program files\daisytoolchain\arm-none-eabi\include\c++\10.2.1\cmath ****   { return __builtin_atan2f(__y, __x); }
 146:c:\program files\daisytoolchain\arm-none-eabi\include\c++\10.2.1\cmath **** 
 147:c:\program files\daisytoolchain\arm-none-eabi\include\c++\10.2.1\cmath ****   inline _GLIBCXX_CONSTEXPR long double
 148:c:\program files\daisytoolchain\arm-none-eabi\include\c++\10.2.1\cmath ****   atan2(long double __y, long double __x)
 149:c:\program files\daisytoolchain\arm-none-eabi\include\c++\10.2.1\cmath ****   { return __builtin_atan2l(__y, __x); }
 150:c:\program files\daisytoolchain\arm-none-eabi\include\c++\10.2.1\cmath **** #endif
 151:c:\program files\daisytoolchain\arm-none-eabi\include\c++\10.2.1\cmath **** 
 152:c:\program files\daisytoolchain\arm-none-eabi\include\c++\10.2.1\cmath ****   template<typename _Tp, typename _Up>
 153:c:\program files\daisytoolchain\arm-none-eabi\include\c++\10.2.1\cmath ****     inline _GLIBCXX_CONSTEXPR
 154:c:\program files\daisytoolchain\arm-none-eabi\include\c++\10.2.1\cmath ****     typename __gnu_cxx::__promote_2<_Tp, _Up>::__type
 155:c:\program files\daisytoolchain\arm-none-eabi\include\c++\10.2.1\cmath ****     atan2(_Tp __y, _Up __x)
 156:c:\program files\daisytoolchain\arm-none-eabi\include\c++\10.2.1\cmath ****     {
 157:c:\program files\daisytoolchain\arm-none-eabi\include\c++\10.2.1\cmath ****       typedef typename __gnu_cxx::__promote_2<_Tp, _Up>::__type __type;
 158:c:\program files\daisytoolchain\arm-none-eabi\include\c++\10.2.1\cmath ****       return atan2(__type(__y), __type(__x));
 159:c:\program files\daisytoolchain\arm-none-eabi\include\c++\10.2.1\cmath ****     }
 160:c:\program files\daisytoolchain\arm-none-eabi\include\c++\10.2.1\cmath **** 
 161:c:\program files\daisytoolchain\arm-none-eabi\include\c++\10.2.1\cmath ****   using ::ceil;
 162:c:\program files\daisytoolchain\arm-none-eabi\include\c++\10.2.1\cmath **** 
ARM GAS  C:\Users\Grant\AppData\Local\Temp\ccNjaI4C.s 			page 25


 163:c:\program files\daisytoolchain\arm-none-eabi\include\c++\10.2.1\cmath **** #ifndef __CORRECT_ISO_CPP_MATH_H_PROTO
 164:c:\program files\daisytoolchain\arm-none-eabi\include\c++\10.2.1\cmath ****   inline _GLIBCXX_CONSTEXPR float
 165:c:\program files\daisytoolchain\arm-none-eabi\include\c++\10.2.1\cmath ****   ceil(float __x)
 166:c:\program files\daisytoolchain\arm-none-eabi\include\c++\10.2.1\cmath ****   { return __builtin_ceilf(__x); }
 167:c:\program files\daisytoolchain\arm-none-eabi\include\c++\10.2.1\cmath **** 
 168:c:\program files\daisytoolchain\arm-none-eabi\include\c++\10.2.1\cmath ****   inline _GLIBCXX_CONSTEXPR long double
 169:c:\program files\daisytoolchain\arm-none-eabi\include\c++\10.2.1\cmath ****   ceil(long double __x)
 170:c:\program files\daisytoolchain\arm-none-eabi\include\c++\10.2.1\cmath ****   { return __builtin_ceill(__x); }
 171:c:\program files\daisytoolchain\arm-none-eabi\include\c++\10.2.1\cmath **** #endif
 172:c:\program files\daisytoolchain\arm-none-eabi\include\c++\10.2.1\cmath **** 
 173:c:\program files\daisytoolchain\arm-none-eabi\include\c++\10.2.1\cmath ****   template<typename _Tp>
 174:c:\program files\daisytoolchain\arm-none-eabi\include\c++\10.2.1\cmath ****     inline _GLIBCXX_CONSTEXPR
 175:c:\program files\daisytoolchain\arm-none-eabi\include\c++\10.2.1\cmath ****     typename __gnu_cxx::__enable_if<__is_integer<_Tp>::__value, 
 176:c:\program files\daisytoolchain\arm-none-eabi\include\c++\10.2.1\cmath ****                                     double>::__type
 177:c:\program files\daisytoolchain\arm-none-eabi\include\c++\10.2.1\cmath ****     ceil(_Tp __x)
 178:c:\program files\daisytoolchain\arm-none-eabi\include\c++\10.2.1\cmath ****     { return __builtin_ceil(__x); }
 179:c:\program files\daisytoolchain\arm-none-eabi\include\c++\10.2.1\cmath **** 
 180:c:\program files\daisytoolchain\arm-none-eabi\include\c++\10.2.1\cmath ****   using ::cos;
 181:c:\program files\daisytoolchain\arm-none-eabi\include\c++\10.2.1\cmath **** 
 182:c:\program files\daisytoolchain\arm-none-eabi\include\c++\10.2.1\cmath **** #ifndef __CORRECT_ISO_CPP_MATH_H_PROTO
 183:c:\program files\daisytoolchain\arm-none-eabi\include\c++\10.2.1\cmath ****   inline _GLIBCXX_CONSTEXPR float
 184:c:\program files\daisytoolchain\arm-none-eabi\include\c++\10.2.1\cmath ****   cos(float __x)
 185:c:\program files\daisytoolchain\arm-none-eabi\include\c++\10.2.1\cmath ****   { return __builtin_cosf(__x); }
 186:c:\program files\daisytoolchain\arm-none-eabi\include\c++\10.2.1\cmath **** 
 187:c:\program files\daisytoolchain\arm-none-eabi\include\c++\10.2.1\cmath ****   inline _GLIBCXX_CONSTEXPR long double
 188:c:\program files\daisytoolchain\arm-none-eabi\include\c++\10.2.1\cmath ****   cos(long double __x)
 189:c:\program files\daisytoolchain\arm-none-eabi\include\c++\10.2.1\cmath ****   { return __builtin_cosl(__x); }
 190:c:\program files\daisytoolchain\arm-none-eabi\include\c++\10.2.1\cmath **** #endif
 191:c:\program files\daisytoolchain\arm-none-eabi\include\c++\10.2.1\cmath **** 
 192:c:\program files\daisytoolchain\arm-none-eabi\include\c++\10.2.1\cmath ****   template<typename _Tp>
 193:c:\program files\daisytoolchain\arm-none-eabi\include\c++\10.2.1\cmath ****     inline _GLIBCXX_CONSTEXPR
 194:c:\program files\daisytoolchain\arm-none-eabi\include\c++\10.2.1\cmath ****     typename __gnu_cxx::__enable_if<__is_integer<_Tp>::__value,
 195:c:\program files\daisytoolchain\arm-none-eabi\include\c++\10.2.1\cmath ****                                     double>::__type
 196:c:\program files\daisytoolchain\arm-none-eabi\include\c++\10.2.1\cmath ****     cos(_Tp __x)
 197:c:\program files\daisytoolchain\arm-none-eabi\include\c++\10.2.1\cmath ****     { return __builtin_cos(__x); }
 198:c:\program files\daisytoolchain\arm-none-eabi\include\c++\10.2.1\cmath **** 
 199:c:\program files\daisytoolchain\arm-none-eabi\include\c++\10.2.1\cmath ****   using ::cosh;
 200:c:\program files\daisytoolchain\arm-none-eabi\include\c++\10.2.1\cmath **** 
 201:c:\program files\daisytoolchain\arm-none-eabi\include\c++\10.2.1\cmath **** #ifndef __CORRECT_ISO_CPP_MATH_H_PROTO
 202:c:\program files\daisytoolchain\arm-none-eabi\include\c++\10.2.1\cmath ****   inline _GLIBCXX_CONSTEXPR float
 203:c:\program files\daisytoolchain\arm-none-eabi\include\c++\10.2.1\cmath ****   cosh(float __x)
 204:c:\program files\daisytoolchain\arm-none-eabi\include\c++\10.2.1\cmath ****   { return __builtin_coshf(__x); }
 205:c:\program files\daisytoolchain\arm-none-eabi\include\c++\10.2.1\cmath **** 
 206:c:\program files\daisytoolchain\arm-none-eabi\include\c++\10.2.1\cmath ****   inline _GLIBCXX_CONSTEXPR long double
 207:c:\program files\daisytoolchain\arm-none-eabi\include\c++\10.2.1\cmath ****   cosh(long double __x)
 208:c:\program files\daisytoolchain\arm-none-eabi\include\c++\10.2.1\cmath ****   { return __builtin_coshl(__x); }
 209:c:\program files\daisytoolchain\arm-none-eabi\include\c++\10.2.1\cmath **** #endif
 210:c:\program files\daisytoolchain\arm-none-eabi\include\c++\10.2.1\cmath **** 
 211:c:\program files\daisytoolchain\arm-none-eabi\include\c++\10.2.1\cmath ****   template<typename _Tp>
 212:c:\program files\daisytoolchain\arm-none-eabi\include\c++\10.2.1\cmath ****     inline _GLIBCXX_CONSTEXPR
 213:c:\program files\daisytoolchain\arm-none-eabi\include\c++\10.2.1\cmath ****     typename __gnu_cxx::__enable_if<__is_integer<_Tp>::__value,
 214:c:\program files\daisytoolchain\arm-none-eabi\include\c++\10.2.1\cmath ****                                     double>::__type
 215:c:\program files\daisytoolchain\arm-none-eabi\include\c++\10.2.1\cmath ****     cosh(_Tp __x)
 216:c:\program files\daisytoolchain\arm-none-eabi\include\c++\10.2.1\cmath ****     { return __builtin_cosh(__x); }
 217:c:\program files\daisytoolchain\arm-none-eabi\include\c++\10.2.1\cmath **** 
 218:c:\program files\daisytoolchain\arm-none-eabi\include\c++\10.2.1\cmath ****   using ::exp;
 219:c:\program files\daisytoolchain\arm-none-eabi\include\c++\10.2.1\cmath **** 
ARM GAS  C:\Users\Grant\AppData\Local\Temp\ccNjaI4C.s 			page 26


 220:c:\program files\daisytoolchain\arm-none-eabi\include\c++\10.2.1\cmath **** #ifndef __CORRECT_ISO_CPP_MATH_H_PROTO
 221:c:\program files\daisytoolchain\arm-none-eabi\include\c++\10.2.1\cmath ****   inline _GLIBCXX_CONSTEXPR float
 222:c:\program files\daisytoolchain\arm-none-eabi\include\c++\10.2.1\cmath ****   exp(float __x)
 223:c:\program files\daisytoolchain\arm-none-eabi\include\c++\10.2.1\cmath ****   { return __builtin_expf(__x); }
 224:c:\program files\daisytoolchain\arm-none-eabi\include\c++\10.2.1\cmath **** 
 225:c:\program files\daisytoolchain\arm-none-eabi\include\c++\10.2.1\cmath ****   inline _GLIBCXX_CONSTEXPR long double
 226:c:\program files\daisytoolchain\arm-none-eabi\include\c++\10.2.1\cmath ****   exp(long double __x)
 227:c:\program files\daisytoolchain\arm-none-eabi\include\c++\10.2.1\cmath ****   { return __builtin_expl(__x); }
 228:c:\program files\daisytoolchain\arm-none-eabi\include\c++\10.2.1\cmath **** #endif
 229:c:\program files\daisytoolchain\arm-none-eabi\include\c++\10.2.1\cmath **** 
 230:c:\program files\daisytoolchain\arm-none-eabi\include\c++\10.2.1\cmath ****   template<typename _Tp>
 231:c:\program files\daisytoolchain\arm-none-eabi\include\c++\10.2.1\cmath ****     inline _GLIBCXX_CONSTEXPR
 232:c:\program files\daisytoolchain\arm-none-eabi\include\c++\10.2.1\cmath ****     typename __gnu_cxx::__enable_if<__is_integer<_Tp>::__value,
 233:c:\program files\daisytoolchain\arm-none-eabi\include\c++\10.2.1\cmath ****                                     double>::__type
 234:c:\program files\daisytoolchain\arm-none-eabi\include\c++\10.2.1\cmath ****     exp(_Tp __x)
 235:c:\program files\daisytoolchain\arm-none-eabi\include\c++\10.2.1\cmath ****     { return __builtin_exp(__x); }
 236:c:\program files\daisytoolchain\arm-none-eabi\include\c++\10.2.1\cmath **** 
 237:c:\program files\daisytoolchain\arm-none-eabi\include\c++\10.2.1\cmath ****   using ::fabs;
 238:c:\program files\daisytoolchain\arm-none-eabi\include\c++\10.2.1\cmath **** 
 239:c:\program files\daisytoolchain\arm-none-eabi\include\c++\10.2.1\cmath **** #ifndef __CORRECT_ISO_CPP_MATH_H_PROTO
 240:c:\program files\daisytoolchain\arm-none-eabi\include\c++\10.2.1\cmath ****   inline _GLIBCXX_CONSTEXPR float
 241:c:\program files\daisytoolchain\arm-none-eabi\include\c++\10.2.1\cmath ****   fabs(float __x)
 242:c:\program files\daisytoolchain\arm-none-eabi\include\c++\10.2.1\cmath ****   { return __builtin_fabsf(__x); }
 243:c:\program files\daisytoolchain\arm-none-eabi\include\c++\10.2.1\cmath **** 
 244:c:\program files\daisytoolchain\arm-none-eabi\include\c++\10.2.1\cmath ****   inline _GLIBCXX_CONSTEXPR long double
 245:c:\program files\daisytoolchain\arm-none-eabi\include\c++\10.2.1\cmath ****   fabs(long double __x)
 246:c:\program files\daisytoolchain\arm-none-eabi\include\c++\10.2.1\cmath ****   { return __builtin_fabsl(__x); }
 247:c:\program files\daisytoolchain\arm-none-eabi\include\c++\10.2.1\cmath **** #endif
 248:c:\program files\daisytoolchain\arm-none-eabi\include\c++\10.2.1\cmath **** 
 249:c:\program files\daisytoolchain\arm-none-eabi\include\c++\10.2.1\cmath ****   template<typename _Tp>
 250:c:\program files\daisytoolchain\arm-none-eabi\include\c++\10.2.1\cmath ****     inline _GLIBCXX_CONSTEXPR
 251:c:\program files\daisytoolchain\arm-none-eabi\include\c++\10.2.1\cmath ****     typename __gnu_cxx::__enable_if<__is_integer<_Tp>::__value,
 252:c:\program files\daisytoolchain\arm-none-eabi\include\c++\10.2.1\cmath ****                                     double>::__type
 253:c:\program files\daisytoolchain\arm-none-eabi\include\c++\10.2.1\cmath ****     fabs(_Tp __x)
 254:c:\program files\daisytoolchain\arm-none-eabi\include\c++\10.2.1\cmath ****     { return __builtin_fabs(__x); }
 255:c:\program files\daisytoolchain\arm-none-eabi\include\c++\10.2.1\cmath **** 
 256:c:\program files\daisytoolchain\arm-none-eabi\include\c++\10.2.1\cmath ****   using ::floor;
 257:c:\program files\daisytoolchain\arm-none-eabi\include\c++\10.2.1\cmath **** 
 258:c:\program files\daisytoolchain\arm-none-eabi\include\c++\10.2.1\cmath **** #ifndef __CORRECT_ISO_CPP_MATH_H_PROTO
 259:c:\program files\daisytoolchain\arm-none-eabi\include\c++\10.2.1\cmath ****   inline _GLIBCXX_CONSTEXPR float
 260:c:\program files\daisytoolchain\arm-none-eabi\include\c++\10.2.1\cmath ****   floor(float __x)
 261:c:\program files\daisytoolchain\arm-none-eabi\include\c++\10.2.1\cmath ****   { return __builtin_floorf(__x); }
 262:c:\program files\daisytoolchain\arm-none-eabi\include\c++\10.2.1\cmath **** 
 263:c:\program files\daisytoolchain\arm-none-eabi\include\c++\10.2.1\cmath ****   inline _GLIBCXX_CONSTEXPR long double
 264:c:\program files\daisytoolchain\arm-none-eabi\include\c++\10.2.1\cmath ****   floor(long double __x)
 265:c:\program files\daisytoolchain\arm-none-eabi\include\c++\10.2.1\cmath ****   { return __builtin_floorl(__x); }
 266:c:\program files\daisytoolchain\arm-none-eabi\include\c++\10.2.1\cmath **** #endif
 267:c:\program files\daisytoolchain\arm-none-eabi\include\c++\10.2.1\cmath **** 
 268:c:\program files\daisytoolchain\arm-none-eabi\include\c++\10.2.1\cmath ****   template<typename _Tp>
 269:c:\program files\daisytoolchain\arm-none-eabi\include\c++\10.2.1\cmath ****     inline _GLIBCXX_CONSTEXPR
 270:c:\program files\daisytoolchain\arm-none-eabi\include\c++\10.2.1\cmath ****     typename __gnu_cxx::__enable_if<__is_integer<_Tp>::__value,
 271:c:\program files\daisytoolchain\arm-none-eabi\include\c++\10.2.1\cmath ****                                     double>::__type
 272:c:\program files\daisytoolchain\arm-none-eabi\include\c++\10.2.1\cmath ****     floor(_Tp __x)
 273:c:\program files\daisytoolchain\arm-none-eabi\include\c++\10.2.1\cmath ****     { return __builtin_floor(__x); }
 274:c:\program files\daisytoolchain\arm-none-eabi\include\c++\10.2.1\cmath **** 
 275:c:\program files\daisytoolchain\arm-none-eabi\include\c++\10.2.1\cmath ****   using ::fmod;
 276:c:\program files\daisytoolchain\arm-none-eabi\include\c++\10.2.1\cmath **** 
ARM GAS  C:\Users\Grant\AppData\Local\Temp\ccNjaI4C.s 			page 27


 277:c:\program files\daisytoolchain\arm-none-eabi\include\c++\10.2.1\cmath **** #ifndef __CORRECT_ISO_CPP_MATH_H_PROTO
 278:c:\program files\daisytoolchain\arm-none-eabi\include\c++\10.2.1\cmath ****   inline _GLIBCXX_CONSTEXPR float
 279:c:\program files\daisytoolchain\arm-none-eabi\include\c++\10.2.1\cmath ****   fmod(float __x, float __y)
 280:c:\program files\daisytoolchain\arm-none-eabi\include\c++\10.2.1\cmath ****   { return __builtin_fmodf(__x, __y); }
 299              		.loc 12 280 27 view .LVU40
 300 0038 DFEDDD0A 		vldr.32	s1, .L42+32
 301              	.LBE1200:
 302              	.LBE1199:
 303              	.LBB1203:
 304              	.LBB1196:
  38:TapeLoop.h    ****     }
 305              		.loc 8 38 71 view .LVU41
 306 003c C7EE097A 		vdiv.f32	s15, s14, s18
  38:TapeLoop.h    ****     }
 307              		.loc 8 38 36 view .LVU42
 308 0040 77EEA67A 		vadd.f32	s15, s15, s13
  38:TapeLoop.h    ****     }
 309              		.loc 8 38 23 view .LVU43
 310 0044 C6ED0C7A 		vstr.32	s15, [r6, #48]
 311              	.LBE1196:
 312              	.LBE1203:
 313              	.LBB1204:
 314              	.LBB1201:
 315              		.loc 12 280 27 view .LVU44
 316 0048 37EE800A 		vadd.f32	s0, s15, s0
 317              	.LVL6:
 318              		.loc 12 280 27 view .LVU45
 319              	.LBE1201:
 320              	.LBE1204:
  45:TapeLoop.h    ****         last_write_head = write_head;
 321              		.loc 8 45 9 is_stmt 1 view .LVU46
 322              	.LBB1205:
 323              	.LBI1199:
 279:c:\program files\daisytoolchain\arm-none-eabi\include\c++\10.2.1\cmath ****   { return __builtin_fmodf(__x, __y); }
 324              		.loc 12 279 3 view .LVU47
 325              	.LBB1202:
 326              		.loc 12 280 5 view .LVU48
 327              		.loc 12 280 27 is_stmt 0 view .LVU49
 328 004c FFF7FEFF 		bl	fmodf
 329              	.LVL7:
 330              		.loc 12 280 27 view .LVU50
 331              	.LBE1202:
 332              	.LBE1205:
 333              		.loc 8 47 33 view .LVU51
 334 0050 B7EEC07A 		vcvt.f64.f32	d7, s0
  46:TapeLoop.h    ****         write_head      = fmod((read_head - 1.), static_cast<float>(MAX_SIZE));
 335              		.loc 8 46 25 view .LVU52
 336 0054 F369     		ldr	r3, [r6, #28]	@ float
  45:TapeLoop.h    ****         last_write_head = write_head;
 337              		.loc 8 45 25 view .LVU53
 338 0056 86ED060A 		vstr.32	s0, [r6, #24]
  46:TapeLoop.h    ****         write_head      = fmod((read_head - 1.), static_cast<float>(MAX_SIZE));
 339              		.loc 8 46 25 view .LVU54
 340 005a 3362     		str	r3, [r6, #32]	@ float
 341              	.LBB1206:
 342              	.LBB1207:
 281:c:\program files\daisytoolchain\arm-none-eabi\include\c++\10.2.1\cmath **** 
ARM GAS  C:\Users\Grant\AppData\Local\Temp\ccNjaI4C.s 			page 28


 282:c:\program files\daisytoolchain\arm-none-eabi\include\c++\10.2.1\cmath ****   inline _GLIBCXX_CONSTEXPR long double
 283:c:\program files\daisytoolchain\arm-none-eabi\include\c++\10.2.1\cmath ****   fmod(long double __x, long double __y)
 284:c:\program files\daisytoolchain\arm-none-eabi\include\c++\10.2.1\cmath ****   { return __builtin_fmodl(__x, __y); }
 285:c:\program files\daisytoolchain\arm-none-eabi\include\c++\10.2.1\cmath **** #endif
 286:c:\program files\daisytoolchain\arm-none-eabi\include\c++\10.2.1\cmath **** 
 287:c:\program files\daisytoolchain\arm-none-eabi\include\c++\10.2.1\cmath ****   template<typename _Tp, typename _Up>
 288:c:\program files\daisytoolchain\arm-none-eabi\include\c++\10.2.1\cmath ****     inline _GLIBCXX_CONSTEXPR
 289:c:\program files\daisytoolchain\arm-none-eabi\include\c++\10.2.1\cmath ****     typename __gnu_cxx::__promote_2<_Tp, _Up>::__type
 290:c:\program files\daisytoolchain\arm-none-eabi\include\c++\10.2.1\cmath ****     fmod(_Tp __x, _Up __y)
 291:c:\program files\daisytoolchain\arm-none-eabi\include\c++\10.2.1\cmath ****     {
 292:c:\program files\daisytoolchain\arm-none-eabi\include\c++\10.2.1\cmath ****       typedef typename __gnu_cxx::__promote_2<_Tp, _Up>::__type __type;
 293:c:\program files\daisytoolchain\arm-none-eabi\include\c++\10.2.1\cmath ****       return fmod(__type(__x), __type(__y));
 343              		.loc 12 293 18 view .LVU55
 344 005c 37EE480B 		vsub.f64	d0, d7, d8
 345 0060 9FEDCB1B 		vldr.64	d1, .L42
 346              	.LVL8:
 347              		.loc 12 293 18 view .LVU56
 348              	.LBE1207:
 349              	.LBE1206:
  46:TapeLoop.h    ****         write_head      = fmod((read_head - 1.), static_cast<float>(MAX_SIZE));
 350              		.loc 8 46 9 is_stmt 1 view .LVU57
 351              		.loc 8 47 9 view .LVU58
 352              	.LBB1209:
 353              	.LBI1206:
 290:c:\program files\daisytoolchain\arm-none-eabi\include\c++\10.2.1\cmath ****     {
 354              		.loc 12 290 5 view .LVU59
 355              	.LBB1208:
 356              		.loc 12 293 18 is_stmt 0 view .LVU60
 357 0064 FFF7FEFF 		bl	fmod
 358              	.LVL9:
 359              		.loc 12 293 18 view .LVU61
 360              	.LBE1208:
 361              	.LBE1209:
 362              	.LBE1210:
 363              	.LBE1231:
 364              	.LBB1232:
 365              	.LBB1233:
 366              	.LBB1234:
 367              	.LBB1235:
  38:TapeLoop.h    ****     }
 368              		.loc 8 38 25 view .LVU62
 369 0068 D6ED276A 		vldr.32	s13, [r6, #156]
  38:TapeLoop.h    ****     }
 370              		.loc 8 38 57 view .LVU63
 371 006c 96ED267A 		vldr.32	s14, [r6, #152]
 372              	.LBE1235:
 373              	.LBE1234:
 374              	.LBE1233:
 375              	.LBE1232:
 376              	.LBB1256:
 377              	.LBB1211:
 378              		.loc 8 47 31 view .LVU64
 379 0070 B7EEC00B 		vcvt.f32.f64	s0, d0
 380              	.LBE1211:
 381              	.LBE1256:
 382              	.LBB1257:
 383              	.LBB1252:
ARM GAS  C:\Users\Grant\AppData\Local\Temp\ccNjaI4C.s 			page 29


  45:TapeLoop.h    ****         last_write_head = write_head;
 384              		.loc 8 45 31 view .LVU65
 385 0074 96ED216A 		vldr.32	s12, [r6, #132]
 386              	.LBB1239:
 387              	.LBB1236:
  38:TapeLoop.h    ****     }
 388              		.loc 8 38 57 view .LVU66
 389 0078 37EE667A 		vsub.f32	s14, s14, s13
 390              	.LBE1236:
 391              	.LBE1239:
 392              	.LBB1240:
 393              	.LBB1241:
 280:c:\program files\daisytoolchain\arm-none-eabi\include\c++\10.2.1\cmath **** 
 394              		.loc 12 280 27 view .LVU67
 395 007c DFEDCC0A 		vldr.32	s1, .L42+32
 396              	.LBE1241:
 397              	.LBE1240:
 398              	.LBE1252:
 399              	.LBE1257:
 400              	.LBB1258:
 401              	.LBB1212:
 402              		.loc 8 47 31 view .LVU68
 403 0080 86ED070A 		vstr.32	s0, [r6, #28]
 404              	.LVL10:
 405              		.loc 8 47 31 view .LVU69
 406              	.LBE1212:
 407              	.LBE1258:
 309:TapeLooper.cpp ****         tracks[1].advanceTapeHeads();
 408              		.loc 10 309 9 is_stmt 1 view .LVU70
 409              	.LBB1259:
 410              	.LBI1232:
  41:TapeLoop.h    ****     {
 411              		.loc 8 41 10 view .LVU71
 412              	.LBB1253:
  43:TapeLoop.h    **** 
 413              		.loc 8 43 8 view .LVU72
 414              	.LBB1244:
 415              	.LBI1234:
  36:TapeLoop.h    ****         float time_const = 48000 * 0.1; 
 416              		.loc 8 36 10 view .LVU73
 417              	.LBB1237:
  37:TapeLoop.h    ****         tape_speed    = tape_speed + (tape_speed_target - tape_speed) / time_const;
 418              		.loc 8 37 9 view .LVU74
  38:TapeLoop.h    ****     }
 419              		.loc 8 38 9 view .LVU75
  38:TapeLoop.h    ****     }
 420              		.loc 8 38 71 is_stmt 0 view .LVU76
 421 0084 C7EE097A 		vdiv.f32	s15, s14, s18
  38:TapeLoop.h    ****     }
 422              		.loc 8 38 36 view .LVU77
 423 0088 77EEA67A 		vadd.f32	s15, s15, s13
 424              	.LBE1237:
 425              	.LBE1244:
 426              	.LBB1245:
 427              	.LBB1242:
 280:c:\program files\daisytoolchain\arm-none-eabi\include\c++\10.2.1\cmath **** 
 428              		.loc 12 280 27 view .LVU78
ARM GAS  C:\Users\Grant\AppData\Local\Temp\ccNjaI4C.s 			page 30


 429 008c 37EE860A 		vadd.f32	s0, s15, s12
 430              	.LBE1242:
 431              	.LBE1245:
 432              	.LBB1246:
 433              	.LBB1238:
  38:TapeLoop.h    ****     }
 434              		.loc 8 38 23 view .LVU79
 435 0090 C6ED277A 		vstr.32	s15, [r6, #156]
 436              	.LVL11:
  38:TapeLoop.h    ****     }
 437              		.loc 8 38 23 view .LVU80
 438              	.LBE1238:
 439              	.LBE1246:
  45:TapeLoop.h    ****         last_write_head = write_head;
 440              		.loc 8 45 9 is_stmt 1 view .LVU81
 441              	.LBB1247:
 442              	.LBI1240:
 279:c:\program files\daisytoolchain\arm-none-eabi\include\c++\10.2.1\cmath ****   { return __builtin_fmodf(__x, __y); }
 443              		.loc 12 279 3 view .LVU82
 444              	.LBB1243:
 280:c:\program files\daisytoolchain\arm-none-eabi\include\c++\10.2.1\cmath **** 
 445              		.loc 12 280 5 view .LVU83
 280:c:\program files\daisytoolchain\arm-none-eabi\include\c++\10.2.1\cmath **** 
 446              		.loc 12 280 27 is_stmt 0 view .LVU84
 447 0094 FFF7FEFF 		bl	fmodf
 448              	.LVL12:
 280:c:\program files\daisytoolchain\arm-none-eabi\include\c++\10.2.1\cmath **** 
 449              		.loc 12 280 27 view .LVU85
 450              	.LBE1243:
 451              	.LBE1247:
 452              		.loc 8 47 33 view .LVU86
 453 0098 B7EEC07A 		vcvt.f64.f32	d7, s0
  46:TapeLoop.h    ****         write_head      = fmod((read_head - 1.), static_cast<float>(MAX_SIZE));
 454              		.loc 8 46 25 view .LVU87
 455 009c D6F88830 		ldr	r3, [r6, #136]	@ float
  45:TapeLoop.h    ****         last_write_head = write_head;
 456              		.loc 8 45 25 view .LVU88
 457 00a0 86ED210A 		vstr.32	s0, [r6, #132]
  46:TapeLoop.h    ****         write_head      = fmod((read_head - 1.), static_cast<float>(MAX_SIZE));
 458              		.loc 8 46 25 view .LVU89
 459 00a4 C6F88C30 		str	r3, [r6, #140]	@ float
 460              	.LBB1248:
 461              	.LBB1249:
 462              		.loc 12 293 18 view .LVU90
 463 00a8 37EE480B 		vsub.f64	d0, d7, d8
 464 00ac 9FEDB81B 		vldr.64	d1, .L42
 465              	.LVL13:
 466              		.loc 12 293 18 view .LVU91
 467              	.LBE1249:
 468              	.LBE1248:
  46:TapeLoop.h    ****         write_head      = fmod((read_head - 1.), static_cast<float>(MAX_SIZE));
 469              		.loc 8 46 9 is_stmt 1 view .LVU92
 470              		.loc 8 47 9 view .LVU93
 471              	.LBB1251:
 472              	.LBI1248:
 290:c:\program files\daisytoolchain\arm-none-eabi\include\c++\10.2.1\cmath ****     {
 473              		.loc 12 290 5 view .LVU94
ARM GAS  C:\Users\Grant\AppData\Local\Temp\ccNjaI4C.s 			page 31


 474              	.LBB1250:
 475              		.loc 12 293 18 is_stmt 0 view .LVU95
 476 00b0 FFF7FEFF 		bl	fmod
 477              	.LVL14:
 478              		.loc 12 293 18 view .LVU96
 479              	.LBE1250:
 480              	.LBE1251:
 481              	.LBE1253:
 482              	.LBE1259:
 483              	.LBB1260:
 484              	.LBB1261:
 485              	.LBB1262:
 486              	.LBB1263:
  38:TapeLoop.h    ****     }
 487              		.loc 8 38 25 view .LVU97
 488 00b4 D6ED426A 		vldr.32	s13, [r6, #264]
  38:TapeLoop.h    ****     }
 489              		.loc 8 38 57 view .LVU98
 490 00b8 96ED417A 		vldr.32	s14, [r6, #260]
 491              	.LBE1263:
 492              	.LBE1262:
 493              	.LBE1261:
 494              	.LBE1260:
 495              	.LBB1284:
 496              	.LBB1254:
 497              		.loc 8 47 31 view .LVU99
 498 00bc B7EEC00B 		vcvt.f32.f64	s0, d0
 499              	.LBE1254:
 500              	.LBE1284:
 501              	.LBB1285:
 502              	.LBB1280:
  45:TapeLoop.h    ****         last_write_head = write_head;
 503              		.loc 8 45 31 view .LVU100
 504 00c0 96ED3C6A 		vldr.32	s12, [r6, #240]
 505              	.LBB1267:
 506              	.LBB1264:
  38:TapeLoop.h    ****     }
 507              		.loc 8 38 57 view .LVU101
 508 00c4 37EE667A 		vsub.f32	s14, s14, s13
 509              	.LBE1264:
 510              	.LBE1267:
 511              	.LBB1268:
 512              	.LBB1269:
 280:c:\program files\daisytoolchain\arm-none-eabi\include\c++\10.2.1\cmath **** 
 513              		.loc 12 280 27 view .LVU102
 514 00c8 DFEDB90A 		vldr.32	s1, .L42+32
 515              	.LBE1269:
 516              	.LBE1268:
 517              	.LBE1280:
 518              	.LBE1285:
 519              	.LBB1286:
 520              	.LBB1255:
 521              		.loc 8 47 31 view .LVU103
 522 00cc 86ED220A 		vstr.32	s0, [r6, #136]
 523              	.LVL15:
 524              		.loc 8 47 31 view .LVU104
 525              	.LBE1255:
ARM GAS  C:\Users\Grant\AppData\Local\Temp\ccNjaI4C.s 			page 32


 526              	.LBE1286:
 310:TapeLooper.cpp ****         tracks[2].advanceTapeHeads();
 527              		.loc 10 310 9 is_stmt 1 view .LVU105
 528              	.LBB1287:
 529              	.LBI1260:
  41:TapeLoop.h    ****     {
 530              		.loc 8 41 10 view .LVU106
 531              	.LBB1281:
  43:TapeLoop.h    **** 
 532              		.loc 8 43 8 view .LVU107
 533              	.LBB1272:
 534              	.LBI1262:
  36:TapeLoop.h    ****         float time_const = 48000 * 0.1; 
 535              		.loc 8 36 10 view .LVU108
 536              	.LBB1265:
  37:TapeLoop.h    ****         tape_speed    = tape_speed + (tape_speed_target - tape_speed) / time_const;
 537              		.loc 8 37 9 view .LVU109
  38:TapeLoop.h    ****     }
 538              		.loc 8 38 9 view .LVU110
  38:TapeLoop.h    ****     }
 539              		.loc 8 38 71 is_stmt 0 view .LVU111
 540 00d0 C7EE097A 		vdiv.f32	s15, s14, s18
  38:TapeLoop.h    ****     }
 541              		.loc 8 38 36 view .LVU112
 542 00d4 77EEA67A 		vadd.f32	s15, s15, s13
 543              	.LBE1265:
 544              	.LBE1272:
 545              	.LBB1273:
 546              	.LBB1270:
 280:c:\program files\daisytoolchain\arm-none-eabi\include\c++\10.2.1\cmath **** 
 547              		.loc 12 280 27 view .LVU113
 548 00d8 37EE860A 		vadd.f32	s0, s15, s12
 549              	.LBE1270:
 550              	.LBE1273:
 551              	.LBB1274:
 552              	.LBB1266:
  38:TapeLoop.h    ****     }
 553              		.loc 8 38 23 view .LVU114
 554 00dc C6ED427A 		vstr.32	s15, [r6, #264]
 555              	.LVL16:
  38:TapeLoop.h    ****     }
 556              		.loc 8 38 23 view .LVU115
 557              	.LBE1266:
 558              	.LBE1274:
  45:TapeLoop.h    ****         last_write_head = write_head;
 559              		.loc 8 45 9 is_stmt 1 view .LVU116
 560              	.LBB1275:
 561              	.LBI1268:
 279:c:\program files\daisytoolchain\arm-none-eabi\include\c++\10.2.1\cmath ****   { return __builtin_fmodf(__x, __y); }
 562              		.loc 12 279 3 view .LVU117
 563              	.LBB1271:
 280:c:\program files\daisytoolchain\arm-none-eabi\include\c++\10.2.1\cmath **** 
 564              		.loc 12 280 5 view .LVU118
 280:c:\program files\daisytoolchain\arm-none-eabi\include\c++\10.2.1\cmath **** 
 565              		.loc 12 280 27 is_stmt 0 view .LVU119
 566 00e0 FFF7FEFF 		bl	fmodf
 567              	.LVL17:
ARM GAS  C:\Users\Grant\AppData\Local\Temp\ccNjaI4C.s 			page 33


 280:c:\program files\daisytoolchain\arm-none-eabi\include\c++\10.2.1\cmath **** 
 568              		.loc 12 280 27 view .LVU120
 569              	.LBE1271:
 570              	.LBE1275:
 571              		.loc 8 47 33 view .LVU121
 572 00e4 B7EEC07A 		vcvt.f64.f32	d7, s0
  46:TapeLoop.h    ****         write_head      = fmod((read_head - 1.), static_cast<float>(MAX_SIZE));
 573              		.loc 8 46 25 view .LVU122
 574 00e8 D6F8F430 		ldr	r3, [r6, #244]	@ float
  45:TapeLoop.h    ****         last_write_head = write_head;
 575              		.loc 8 45 25 view .LVU123
 576 00ec 86ED3C0A 		vstr.32	s0, [r6, #240]
  46:TapeLoop.h    ****         write_head      = fmod((read_head - 1.), static_cast<float>(MAX_SIZE));
 577              		.loc 8 46 25 view .LVU124
 578 00f0 C6F8F830 		str	r3, [r6, #248]	@ float
 579              	.LBB1276:
 580              	.LBB1277:
 581              		.loc 12 293 18 view .LVU125
 582 00f4 37EE480B 		vsub.f64	d0, d7, d8
 583 00f8 9FEDA51B 		vldr.64	d1, .L42
 584              	.LVL18:
 585              		.loc 12 293 18 view .LVU126
 586              	.LBE1277:
 587              	.LBE1276:
  46:TapeLoop.h    ****         write_head      = fmod((read_head - 1.), static_cast<float>(MAX_SIZE));
 588              		.loc 8 46 9 is_stmt 1 view .LVU127
 589              		.loc 8 47 9 view .LVU128
 590              	.LBB1279:
 591              	.LBI1276:
 290:c:\program files\daisytoolchain\arm-none-eabi\include\c++\10.2.1\cmath ****     {
 592              		.loc 12 290 5 view .LVU129
 593              	.LBB1278:
 594              		.loc 12 293 18 is_stmt 0 view .LVU130
 595 00fc FFF7FEFF 		bl	fmod
 596              	.LVL19:
 597              		.loc 12 293 18 view .LVU131
 598              	.LBE1278:
 599              	.LBE1279:
 600              	.LBE1281:
 601              	.LBE1287:
 602              	.LBB1288:
 603              	.LBB1289:
 604              	.LBB1290:
 605              	.LBB1291:
  38:TapeLoop.h    ****     }
 606              		.loc 8 38 25 view .LVU132
 607 0100 D6ED5D6A 		vldr.32	s13, [r6, #372]
  38:TapeLoop.h    ****     }
 608              		.loc 8 38 57 view .LVU133
 609 0104 96ED5C7A 		vldr.32	s14, [r6, #368]
 610              	.LBE1291:
 611              	.LBE1290:
 612              	.LBE1289:
 613              	.LBE1288:
 614              	.LBB1311:
 615              	.LBB1282:
 616              		.loc 8 47 31 view .LVU134
ARM GAS  C:\Users\Grant\AppData\Local\Temp\ccNjaI4C.s 			page 34


 617 0108 B7EEC00B 		vcvt.f32.f64	s0, d0
 618              	.LBE1282:
 619              	.LBE1311:
 620              	.LBB1312:
 621              	.LBB1308:
  45:TapeLoop.h    ****         last_write_head = write_head;
 622              		.loc 8 45 31 view .LVU135
 623 010c 96ED576A 		vldr.32	s12, [r6, #348]
 624              	.LBB1295:
 625              	.LBB1292:
  38:TapeLoop.h    ****     }
 626              		.loc 8 38 57 view .LVU136
 627 0110 37EE667A 		vsub.f32	s14, s14, s13
 628              	.LBE1292:
 629              	.LBE1295:
 630              	.LBB1296:
 631              	.LBB1297:
 280:c:\program files\daisytoolchain\arm-none-eabi\include\c++\10.2.1\cmath **** 
 632              		.loc 12 280 27 view .LVU137
 633 0114 DFEDA60A 		vldr.32	s1, .L42+32
 634              	.LBE1297:
 635              	.LBE1296:
 636              	.LBE1308:
 637              	.LBE1312:
 638              	.LBB1313:
 639              	.LBB1283:
 640              		.loc 8 47 31 view .LVU138
 641 0118 86ED3D0A 		vstr.32	s0, [r6, #244]
 642              	.LVL20:
 643              		.loc 8 47 31 view .LVU139
 644              	.LBE1283:
 645              	.LBE1313:
 311:TapeLooper.cpp ****         tracks[3].advanceTapeHeads();
 646              		.loc 10 311 9 is_stmt 1 view .LVU140
 647              	.LBB1314:
 648              	.LBI1288:
  41:TapeLoop.h    ****     {
 649              		.loc 8 41 10 view .LVU141
 650              	.LBB1309:
  43:TapeLoop.h    **** 
 651              		.loc 8 43 8 view .LVU142
 652              	.LBB1300:
 653              	.LBI1290:
  36:TapeLoop.h    ****         float time_const = 48000 * 0.1; 
 654              		.loc 8 36 10 view .LVU143
 655              	.LBB1293:
  37:TapeLoop.h    ****         tape_speed    = tape_speed + (tape_speed_target - tape_speed) / time_const;
 656              		.loc 8 37 9 view .LVU144
  38:TapeLoop.h    ****     }
 657              		.loc 8 38 9 view .LVU145
  38:TapeLoop.h    ****     }
 658              		.loc 8 38 71 is_stmt 0 view .LVU146
 659 011c C7EE097A 		vdiv.f32	s15, s14, s18
  38:TapeLoop.h    ****     }
 660              		.loc 8 38 36 view .LVU147
 661 0120 77EEA67A 		vadd.f32	s15, s15, s13
 662              	.LBE1293:
ARM GAS  C:\Users\Grant\AppData\Local\Temp\ccNjaI4C.s 			page 35


 663              	.LBE1300:
 664              	.LBB1301:
 665              	.LBB1298:
 280:c:\program files\daisytoolchain\arm-none-eabi\include\c++\10.2.1\cmath **** 
 666              		.loc 12 280 27 view .LVU148
 667 0124 37EE860A 		vadd.f32	s0, s15, s12
 668              	.LBE1298:
 669              	.LBE1301:
 670              	.LBB1302:
 671              	.LBB1294:
  38:TapeLoop.h    ****     }
 672              		.loc 8 38 23 view .LVU149
 673 0128 C6ED5D7A 		vstr.32	s15, [r6, #372]
 674              	.LVL21:
  38:TapeLoop.h    ****     }
 675              		.loc 8 38 23 view .LVU150
 676              	.LBE1294:
 677              	.LBE1302:
  45:TapeLoop.h    ****         last_write_head = write_head;
 678              		.loc 8 45 9 is_stmt 1 view .LVU151
 679              	.LBB1303:
 680              	.LBI1296:
 279:c:\program files\daisytoolchain\arm-none-eabi\include\c++\10.2.1\cmath ****   { return __builtin_fmodf(__x, __y); }
 681              		.loc 12 279 3 view .LVU152
 682              	.LBB1299:
 280:c:\program files\daisytoolchain\arm-none-eabi\include\c++\10.2.1\cmath **** 
 683              		.loc 12 280 5 view .LVU153
 280:c:\program files\daisytoolchain\arm-none-eabi\include\c++\10.2.1\cmath **** 
 684              		.loc 12 280 27 is_stmt 0 view .LVU154
 685 012c FFF7FEFF 		bl	fmodf
 686              	.LVL22:
 280:c:\program files\daisytoolchain\arm-none-eabi\include\c++\10.2.1\cmath **** 
 687              		.loc 12 280 27 view .LVU155
 688              	.LBE1299:
 689              	.LBE1303:
 690              		.loc 8 47 33 view .LVU156
 691 0130 B7EEC07A 		vcvt.f64.f32	d7, s0
  46:TapeLoop.h    ****         write_head      = fmod((read_head - 1.), static_cast<float>(MAX_SIZE));
 692              		.loc 8 46 25 view .LVU157
 693 0134 D6F86031 		ldr	r3, [r6, #352]	@ float
  45:TapeLoop.h    ****         last_write_head = write_head;
 694              		.loc 8 45 25 view .LVU158
 695 0138 86ED570A 		vstr.32	s0, [r6, #348]
  46:TapeLoop.h    ****         write_head      = fmod((read_head - 1.), static_cast<float>(MAX_SIZE));
 696              		.loc 8 46 25 view .LVU159
 697 013c C6F86431 		str	r3, [r6, #356]	@ float
 698              	.LBB1304:
 699              	.LBB1305:
 700              		.loc 12 293 18 view .LVU160
 701 0140 37EE480B 		vsub.f64	d0, d7, d8
 702 0144 9FED921B 		vldr.64	d1, .L42
 703              	.LVL23:
 704              		.loc 12 293 18 view .LVU161
 705              	.LBE1305:
 706              	.LBE1304:
  46:TapeLoop.h    ****         write_head      = fmod((read_head - 1.), static_cast<float>(MAX_SIZE));
 707              		.loc 8 46 9 is_stmt 1 view .LVU162
ARM GAS  C:\Users\Grant\AppData\Local\Temp\ccNjaI4C.s 			page 36


 708              		.loc 8 47 9 view .LVU163
 709              	.LBB1307:
 710              	.LBI1304:
 290:c:\program files\daisytoolchain\arm-none-eabi\include\c++\10.2.1\cmath ****     {
 711              		.loc 12 290 5 view .LVU164
 712              	.LBB1306:
 713              		.loc 12 293 18 is_stmt 0 view .LVU165
 714 0148 FFF7FEFF 		bl	fmod
 715              	.LVL24:
 716              		.loc 12 293 18 view .LVU166
 717              	.LBE1306:
 718              	.LBE1307:
 719              		.loc 8 47 31 view .LVU167
 720 014c B7EEC00B 		vcvt.f32.f64	s0, d0
 721              	.LBE1309:
 722              	.LBE1314:
 312:TapeLooper.cpp **** 
 313:TapeLooper.cpp **** 
 314:TapeLooper.cpp ****         std::vector<float> mixed   = {0.f, 0.f};
 723              		.loc 10 314 47 view .LVU168
 724 0150 0023     		movs	r3, #0
 725              	.LBB1315:
 726              	.LBB1316:
 727              	.LBB1317:
 728              	.LBB1318:
 729              	.LBB1319:
 730              	.LBB1320:
 731              	.LBB1321:
 732              	.LBB1322:
 733              		.file 13 "c:\\program files\\daisytoolchain\\arm-none-eabi\\include\\c++\\10.2.1\\ext\\new_allocat
   1:c:\program files\daisytoolchain\arm-none-eabi\include\c++\10.2.1\ext\new_allocator.h **** // Allocator that wraps operator new -*- C++ -*-
   2:c:\program files\daisytoolchain\arm-none-eabi\include\c++\10.2.1\ext\new_allocator.h **** 
   3:c:\program files\daisytoolchain\arm-none-eabi\include\c++\10.2.1\ext\new_allocator.h **** // Copyright (C) 2001-2020 Free Software Foundation, Inc.
   4:c:\program files\daisytoolchain\arm-none-eabi\include\c++\10.2.1\ext\new_allocator.h **** //
   5:c:\program files\daisytoolchain\arm-none-eabi\include\c++\10.2.1\ext\new_allocator.h **** // This file is part of the GNU ISO C++ Library.  This library is free
   6:c:\program files\daisytoolchain\arm-none-eabi\include\c++\10.2.1\ext\new_allocator.h **** // software; you can redistribute it and/or modify it under the
   7:c:\program files\daisytoolchain\arm-none-eabi\include\c++\10.2.1\ext\new_allocator.h **** // terms of the GNU General Public License as published by the
   8:c:\program files\daisytoolchain\arm-none-eabi\include\c++\10.2.1\ext\new_allocator.h **** // Free Software Foundation; either version 3, or (at your option)
   9:c:\program files\daisytoolchain\arm-none-eabi\include\c++\10.2.1\ext\new_allocator.h **** // any later version.
  10:c:\program files\daisytoolchain\arm-none-eabi\include\c++\10.2.1\ext\new_allocator.h **** 
  11:c:\program files\daisytoolchain\arm-none-eabi\include\c++\10.2.1\ext\new_allocator.h **** // This library is distributed in the hope that it will be useful,
  12:c:\program files\daisytoolchain\arm-none-eabi\include\c++\10.2.1\ext\new_allocator.h **** // but WITHOUT ANY WARRANTY; without even the implied warranty of
  13:c:\program files\daisytoolchain\arm-none-eabi\include\c++\10.2.1\ext\new_allocator.h **** // MERCHANTABILITY or FITNESS FOR A PARTICULAR PURPOSE.  See the
  14:c:\program files\daisytoolchain\arm-none-eabi\include\c++\10.2.1\ext\new_allocator.h **** // GNU General Public License for more details.
  15:c:\program files\daisytoolchain\arm-none-eabi\include\c++\10.2.1\ext\new_allocator.h **** 
  16:c:\program files\daisytoolchain\arm-none-eabi\include\c++\10.2.1\ext\new_allocator.h **** // Under Section 7 of GPL version 3, you are granted additional
  17:c:\program files\daisytoolchain\arm-none-eabi\include\c++\10.2.1\ext\new_allocator.h **** // permissions described in the GCC Runtime Library Exception, version
  18:c:\program files\daisytoolchain\arm-none-eabi\include\c++\10.2.1\ext\new_allocator.h **** // 3.1, as published by the Free Software Foundation.
  19:c:\program files\daisytoolchain\arm-none-eabi\include\c++\10.2.1\ext\new_allocator.h **** 
  20:c:\program files\daisytoolchain\arm-none-eabi\include\c++\10.2.1\ext\new_allocator.h **** // You should have received a copy of the GNU General Public License and
  21:c:\program files\daisytoolchain\arm-none-eabi\include\c++\10.2.1\ext\new_allocator.h **** // a copy of the GCC Runtime Library Exception along with this program;
  22:c:\program files\daisytoolchain\arm-none-eabi\include\c++\10.2.1\ext\new_allocator.h **** // see the files COPYING3 and COPYING.RUNTIME respectively.  If not, see
  23:c:\program files\daisytoolchain\arm-none-eabi\include\c++\10.2.1\ext\new_allocator.h **** // <http://www.gnu.org/licenses/>.
  24:c:\program files\daisytoolchain\arm-none-eabi\include\c++\10.2.1\ext\new_allocator.h **** 
  25:c:\program files\daisytoolchain\arm-none-eabi\include\c++\10.2.1\ext\new_allocator.h **** /** @file ext/new_allocator.h
  26:c:\program files\daisytoolchain\arm-none-eabi\include\c++\10.2.1\ext\new_allocator.h ****  *  This file is a GNU extension to the Standard C++ Library.
  27:c:\program files\daisytoolchain\arm-none-eabi\include\c++\10.2.1\ext\new_allocator.h ****  */
ARM GAS  C:\Users\Grant\AppData\Local\Temp\ccNjaI4C.s 			page 37


  28:c:\program files\daisytoolchain\arm-none-eabi\include\c++\10.2.1\ext\new_allocator.h **** 
  29:c:\program files\daisytoolchain\arm-none-eabi\include\c++\10.2.1\ext\new_allocator.h **** #ifndef _NEW_ALLOCATOR_H
  30:c:\program files\daisytoolchain\arm-none-eabi\include\c++\10.2.1\ext\new_allocator.h **** #define _NEW_ALLOCATOR_H 1
  31:c:\program files\daisytoolchain\arm-none-eabi\include\c++\10.2.1\ext\new_allocator.h **** 
  32:c:\program files\daisytoolchain\arm-none-eabi\include\c++\10.2.1\ext\new_allocator.h **** #include <bits/c++config.h>
  33:c:\program files\daisytoolchain\arm-none-eabi\include\c++\10.2.1\ext\new_allocator.h **** #include <new>
  34:c:\program files\daisytoolchain\arm-none-eabi\include\c++\10.2.1\ext\new_allocator.h **** #include <bits/functexcept.h>
  35:c:\program files\daisytoolchain\arm-none-eabi\include\c++\10.2.1\ext\new_allocator.h **** #include <bits/move.h>
  36:c:\program files\daisytoolchain\arm-none-eabi\include\c++\10.2.1\ext\new_allocator.h **** #if __cplusplus >= 201103L
  37:c:\program files\daisytoolchain\arm-none-eabi\include\c++\10.2.1\ext\new_allocator.h **** #include <type_traits>
  38:c:\program files\daisytoolchain\arm-none-eabi\include\c++\10.2.1\ext\new_allocator.h **** #endif
  39:c:\program files\daisytoolchain\arm-none-eabi\include\c++\10.2.1\ext\new_allocator.h **** 
  40:c:\program files\daisytoolchain\arm-none-eabi\include\c++\10.2.1\ext\new_allocator.h **** namespace __gnu_cxx _GLIBCXX_VISIBILITY(default)
  41:c:\program files\daisytoolchain\arm-none-eabi\include\c++\10.2.1\ext\new_allocator.h **** {
  42:c:\program files\daisytoolchain\arm-none-eabi\include\c++\10.2.1\ext\new_allocator.h **** _GLIBCXX_BEGIN_NAMESPACE_VERSION
  43:c:\program files\daisytoolchain\arm-none-eabi\include\c++\10.2.1\ext\new_allocator.h **** 
  44:c:\program files\daisytoolchain\arm-none-eabi\include\c++\10.2.1\ext\new_allocator.h ****   /**
  45:c:\program files\daisytoolchain\arm-none-eabi\include\c++\10.2.1\ext\new_allocator.h ****    *  @brief  An allocator that uses global new, as per [20.4].
  46:c:\program files\daisytoolchain\arm-none-eabi\include\c++\10.2.1\ext\new_allocator.h ****    *  @ingroup allocators
  47:c:\program files\daisytoolchain\arm-none-eabi\include\c++\10.2.1\ext\new_allocator.h ****    *
  48:c:\program files\daisytoolchain\arm-none-eabi\include\c++\10.2.1\ext\new_allocator.h ****    *  This is precisely the allocator defined in the C++ Standard.
  49:c:\program files\daisytoolchain\arm-none-eabi\include\c++\10.2.1\ext\new_allocator.h ****    *    - all allocation calls operator new
  50:c:\program files\daisytoolchain\arm-none-eabi\include\c++\10.2.1\ext\new_allocator.h ****    *    - all deallocation calls operator delete
  51:c:\program files\daisytoolchain\arm-none-eabi\include\c++\10.2.1\ext\new_allocator.h ****    *
  52:c:\program files\daisytoolchain\arm-none-eabi\include\c++\10.2.1\ext\new_allocator.h ****    *  @tparam  _Tp  Type of allocated object.
  53:c:\program files\daisytoolchain\arm-none-eabi\include\c++\10.2.1\ext\new_allocator.h ****    */
  54:c:\program files\daisytoolchain\arm-none-eabi\include\c++\10.2.1\ext\new_allocator.h ****   template<typename _Tp>
  55:c:\program files\daisytoolchain\arm-none-eabi\include\c++\10.2.1\ext\new_allocator.h ****     class new_allocator
  56:c:\program files\daisytoolchain\arm-none-eabi\include\c++\10.2.1\ext\new_allocator.h ****     {
  57:c:\program files\daisytoolchain\arm-none-eabi\include\c++\10.2.1\ext\new_allocator.h ****     public:
  58:c:\program files\daisytoolchain\arm-none-eabi\include\c++\10.2.1\ext\new_allocator.h ****       typedef _Tp        value_type;
  59:c:\program files\daisytoolchain\arm-none-eabi\include\c++\10.2.1\ext\new_allocator.h ****       typedef std::size_t     size_type;
  60:c:\program files\daisytoolchain\arm-none-eabi\include\c++\10.2.1\ext\new_allocator.h ****       typedef std::ptrdiff_t  difference_type;
  61:c:\program files\daisytoolchain\arm-none-eabi\include\c++\10.2.1\ext\new_allocator.h **** #if __cplusplus <= 201703L
  62:c:\program files\daisytoolchain\arm-none-eabi\include\c++\10.2.1\ext\new_allocator.h ****       typedef _Tp*       pointer;
  63:c:\program files\daisytoolchain\arm-none-eabi\include\c++\10.2.1\ext\new_allocator.h ****       typedef const _Tp* const_pointer;
  64:c:\program files\daisytoolchain\arm-none-eabi\include\c++\10.2.1\ext\new_allocator.h ****       typedef _Tp&       reference;
  65:c:\program files\daisytoolchain\arm-none-eabi\include\c++\10.2.1\ext\new_allocator.h ****       typedef const _Tp& const_reference;
  66:c:\program files\daisytoolchain\arm-none-eabi\include\c++\10.2.1\ext\new_allocator.h **** 
  67:c:\program files\daisytoolchain\arm-none-eabi\include\c++\10.2.1\ext\new_allocator.h ****       template<typename _Tp1>
  68:c:\program files\daisytoolchain\arm-none-eabi\include\c++\10.2.1\ext\new_allocator.h **** 	struct rebind
  69:c:\program files\daisytoolchain\arm-none-eabi\include\c++\10.2.1\ext\new_allocator.h **** 	{ typedef new_allocator<_Tp1> other; };
  70:c:\program files\daisytoolchain\arm-none-eabi\include\c++\10.2.1\ext\new_allocator.h **** #endif
  71:c:\program files\daisytoolchain\arm-none-eabi\include\c++\10.2.1\ext\new_allocator.h **** 
  72:c:\program files\daisytoolchain\arm-none-eabi\include\c++\10.2.1\ext\new_allocator.h **** #if __cplusplus >= 201103L
  73:c:\program files\daisytoolchain\arm-none-eabi\include\c++\10.2.1\ext\new_allocator.h ****       // _GLIBCXX_RESOLVE_LIB_DEFECTS
  74:c:\program files\daisytoolchain\arm-none-eabi\include\c++\10.2.1\ext\new_allocator.h ****       // 2103. propagate_on_container_move_assignment
  75:c:\program files\daisytoolchain\arm-none-eabi\include\c++\10.2.1\ext\new_allocator.h ****       typedef std::true_type propagate_on_container_move_assignment;
  76:c:\program files\daisytoolchain\arm-none-eabi\include\c++\10.2.1\ext\new_allocator.h **** #endif
  77:c:\program files\daisytoolchain\arm-none-eabi\include\c++\10.2.1\ext\new_allocator.h **** 
  78:c:\program files\daisytoolchain\arm-none-eabi\include\c++\10.2.1\ext\new_allocator.h ****       _GLIBCXX20_CONSTEXPR
  79:c:\program files\daisytoolchain\arm-none-eabi\include\c++\10.2.1\ext\new_allocator.h ****       new_allocator() _GLIBCXX_USE_NOEXCEPT { }
  80:c:\program files\daisytoolchain\arm-none-eabi\include\c++\10.2.1\ext\new_allocator.h **** 
  81:c:\program files\daisytoolchain\arm-none-eabi\include\c++\10.2.1\ext\new_allocator.h ****       _GLIBCXX20_CONSTEXPR
  82:c:\program files\daisytoolchain\arm-none-eabi\include\c++\10.2.1\ext\new_allocator.h ****       new_allocator(const new_allocator&) _GLIBCXX_USE_NOEXCEPT { }
  83:c:\program files\daisytoolchain\arm-none-eabi\include\c++\10.2.1\ext\new_allocator.h **** 
  84:c:\program files\daisytoolchain\arm-none-eabi\include\c++\10.2.1\ext\new_allocator.h ****       template<typename _Tp1>
ARM GAS  C:\Users\Grant\AppData\Local\Temp\ccNjaI4C.s 			page 38


  85:c:\program files\daisytoolchain\arm-none-eabi\include\c++\10.2.1\ext\new_allocator.h **** 	_GLIBCXX20_CONSTEXPR
  86:c:\program files\daisytoolchain\arm-none-eabi\include\c++\10.2.1\ext\new_allocator.h **** 	new_allocator(const new_allocator<_Tp1>&) _GLIBCXX_USE_NOEXCEPT { }
  87:c:\program files\daisytoolchain\arm-none-eabi\include\c++\10.2.1\ext\new_allocator.h **** 
  88:c:\program files\daisytoolchain\arm-none-eabi\include\c++\10.2.1\ext\new_allocator.h **** #if __cplusplus <= 201703L
  89:c:\program files\daisytoolchain\arm-none-eabi\include\c++\10.2.1\ext\new_allocator.h ****       ~new_allocator() _GLIBCXX_USE_NOEXCEPT { }
  90:c:\program files\daisytoolchain\arm-none-eabi\include\c++\10.2.1\ext\new_allocator.h **** 
  91:c:\program files\daisytoolchain\arm-none-eabi\include\c++\10.2.1\ext\new_allocator.h ****       pointer
  92:c:\program files\daisytoolchain\arm-none-eabi\include\c++\10.2.1\ext\new_allocator.h ****       address(reference __x) const _GLIBCXX_NOEXCEPT
  93:c:\program files\daisytoolchain\arm-none-eabi\include\c++\10.2.1\ext\new_allocator.h ****       { return std::__addressof(__x); }
  94:c:\program files\daisytoolchain\arm-none-eabi\include\c++\10.2.1\ext\new_allocator.h **** 
  95:c:\program files\daisytoolchain\arm-none-eabi\include\c++\10.2.1\ext\new_allocator.h ****       const_pointer
  96:c:\program files\daisytoolchain\arm-none-eabi\include\c++\10.2.1\ext\new_allocator.h ****       address(const_reference __x) const _GLIBCXX_NOEXCEPT
  97:c:\program files\daisytoolchain\arm-none-eabi\include\c++\10.2.1\ext\new_allocator.h ****       { return std::__addressof(__x); }
  98:c:\program files\daisytoolchain\arm-none-eabi\include\c++\10.2.1\ext\new_allocator.h **** #endif
  99:c:\program files\daisytoolchain\arm-none-eabi\include\c++\10.2.1\ext\new_allocator.h **** 
 100:c:\program files\daisytoolchain\arm-none-eabi\include\c++\10.2.1\ext\new_allocator.h ****       // NB: __n is permitted to be 0.  The C++ standard says nothing
 101:c:\program files\daisytoolchain\arm-none-eabi\include\c++\10.2.1\ext\new_allocator.h ****       // about what the return value is when __n == 0.
 102:c:\program files\daisytoolchain\arm-none-eabi\include\c++\10.2.1\ext\new_allocator.h ****       _GLIBCXX_NODISCARD _Tp*
 103:c:\program files\daisytoolchain\arm-none-eabi\include\c++\10.2.1\ext\new_allocator.h ****       allocate(size_type __n, const void* = static_cast<const void*>(0))
 104:c:\program files\daisytoolchain\arm-none-eabi\include\c++\10.2.1\ext\new_allocator.h ****       {
 105:c:\program files\daisytoolchain\arm-none-eabi\include\c++\10.2.1\ext\new_allocator.h **** 	if (__n > this->_M_max_size())
 106:c:\program files\daisytoolchain\arm-none-eabi\include\c++\10.2.1\ext\new_allocator.h **** 	  std::__throw_bad_alloc();
 107:c:\program files\daisytoolchain\arm-none-eabi\include\c++\10.2.1\ext\new_allocator.h **** 
 108:c:\program files\daisytoolchain\arm-none-eabi\include\c++\10.2.1\ext\new_allocator.h **** #if __cpp_aligned_new
 109:c:\program files\daisytoolchain\arm-none-eabi\include\c++\10.2.1\ext\new_allocator.h **** 	if (alignof(_Tp) > __STDCPP_DEFAULT_NEW_ALIGNMENT__)
 110:c:\program files\daisytoolchain\arm-none-eabi\include\c++\10.2.1\ext\new_allocator.h **** 	  {
 111:c:\program files\daisytoolchain\arm-none-eabi\include\c++\10.2.1\ext\new_allocator.h **** 	    std::align_val_t __al = std::align_val_t(alignof(_Tp));
 112:c:\program files\daisytoolchain\arm-none-eabi\include\c++\10.2.1\ext\new_allocator.h **** 	    return static_cast<_Tp*>(::operator new(__n * sizeof(_Tp), __al));
 113:c:\program files\daisytoolchain\arm-none-eabi\include\c++\10.2.1\ext\new_allocator.h **** 	  }
 114:c:\program files\daisytoolchain\arm-none-eabi\include\c++\10.2.1\ext\new_allocator.h **** #endif
 115:c:\program files\daisytoolchain\arm-none-eabi\include\c++\10.2.1\ext\new_allocator.h **** 	return static_cast<_Tp*>(::operator new(__n * sizeof(_Tp)));
 734              		.loc 13 115 41 view .LVU169
 735 0152 0820     		movs	r0, #8
 736              	.LBE1322:
 737              	.LBE1321:
 738              	.LBE1320:
 739              	.LBE1319:
 740              	.LBE1318:
 741              	.LBE1317:
 742              	.LBE1316:
 743              	.LBE1315:
 744              	.LBB1404:
 745              	.LBB1310:
 746              		.loc 8 47 31 view .LVU170
 747 0154 86ED580A 		vstr.32	s0, [r6, #352]
 748              	.LVL25:
 749              		.loc 8 47 31 view .LVU171
 750              	.LBE1310:
 751              	.LBE1404:
 752              		.loc 10 314 9 is_stmt 1 view .LVU172
 753              	.LBB1405:
 754              	.LBI1405:
 755              		.file 14 "c:\\program files\\daisytoolchain\\arm-none-eabi\\include\\c++\\10.2.1\\bits\\allocator.
   1:c:\program files\daisytoolchain\arm-none-eabi\include\c++\10.2.1\bits\allocator.h **** // Allocators -*- C++ -*-
   2:c:\program files\daisytoolchain\arm-none-eabi\include\c++\10.2.1\bits\allocator.h **** 
   3:c:\program files\daisytoolchain\arm-none-eabi\include\c++\10.2.1\bits\allocator.h **** // Copyright (C) 2001-2020 Free Software Foundation, Inc.
   4:c:\program files\daisytoolchain\arm-none-eabi\include\c++\10.2.1\bits\allocator.h **** //
ARM GAS  C:\Users\Grant\AppData\Local\Temp\ccNjaI4C.s 			page 39


   5:c:\program files\daisytoolchain\arm-none-eabi\include\c++\10.2.1\bits\allocator.h **** // This file is part of the GNU ISO C++ Library.  This library is free
   6:c:\program files\daisytoolchain\arm-none-eabi\include\c++\10.2.1\bits\allocator.h **** // software; you can redistribute it and/or modify it under the
   7:c:\program files\daisytoolchain\arm-none-eabi\include\c++\10.2.1\bits\allocator.h **** // terms of the GNU General Public License as published by the
   8:c:\program files\daisytoolchain\arm-none-eabi\include\c++\10.2.1\bits\allocator.h **** // Free Software Foundation; either version 3, or (at your option)
   9:c:\program files\daisytoolchain\arm-none-eabi\include\c++\10.2.1\bits\allocator.h **** // any later version.
  10:c:\program files\daisytoolchain\arm-none-eabi\include\c++\10.2.1\bits\allocator.h **** 
  11:c:\program files\daisytoolchain\arm-none-eabi\include\c++\10.2.1\bits\allocator.h **** // This library is distributed in the hope that it will be useful,
  12:c:\program files\daisytoolchain\arm-none-eabi\include\c++\10.2.1\bits\allocator.h **** // but WITHOUT ANY WARRANTY; without even the implied warranty of
  13:c:\program files\daisytoolchain\arm-none-eabi\include\c++\10.2.1\bits\allocator.h **** // MERCHANTABILITY or FITNESS FOR A PARTICULAR PURPOSE.  See the
  14:c:\program files\daisytoolchain\arm-none-eabi\include\c++\10.2.1\bits\allocator.h **** // GNU General Public License for more details.
  15:c:\program files\daisytoolchain\arm-none-eabi\include\c++\10.2.1\bits\allocator.h **** 
  16:c:\program files\daisytoolchain\arm-none-eabi\include\c++\10.2.1\bits\allocator.h **** // Under Section 7 of GPL version 3, you are granted additional
  17:c:\program files\daisytoolchain\arm-none-eabi\include\c++\10.2.1\bits\allocator.h **** // permissions described in the GCC Runtime Library Exception, version
  18:c:\program files\daisytoolchain\arm-none-eabi\include\c++\10.2.1\bits\allocator.h **** // 3.1, as published by the Free Software Foundation.
  19:c:\program files\daisytoolchain\arm-none-eabi\include\c++\10.2.1\bits\allocator.h **** 
  20:c:\program files\daisytoolchain\arm-none-eabi\include\c++\10.2.1\bits\allocator.h **** // You should have received a copy of the GNU General Public License and
  21:c:\program files\daisytoolchain\arm-none-eabi\include\c++\10.2.1\bits\allocator.h **** // a copy of the GCC Runtime Library Exception along with this program;
  22:c:\program files\daisytoolchain\arm-none-eabi\include\c++\10.2.1\bits\allocator.h **** // see the files COPYING3 and COPYING.RUNTIME respectively.  If not, see
  23:c:\program files\daisytoolchain\arm-none-eabi\include\c++\10.2.1\bits\allocator.h **** // <http://www.gnu.org/licenses/>.
  24:c:\program files\daisytoolchain\arm-none-eabi\include\c++\10.2.1\bits\allocator.h **** 
  25:c:\program files\daisytoolchain\arm-none-eabi\include\c++\10.2.1\bits\allocator.h **** /*
  26:c:\program files\daisytoolchain\arm-none-eabi\include\c++\10.2.1\bits\allocator.h ****  * Copyright (c) 1996-1997
  27:c:\program files\daisytoolchain\arm-none-eabi\include\c++\10.2.1\bits\allocator.h ****  * Silicon Graphics Computer Systems, Inc.
  28:c:\program files\daisytoolchain\arm-none-eabi\include\c++\10.2.1\bits\allocator.h ****  *
  29:c:\program files\daisytoolchain\arm-none-eabi\include\c++\10.2.1\bits\allocator.h ****  * Permission to use, copy, modify, distribute and sell this software
  30:c:\program files\daisytoolchain\arm-none-eabi\include\c++\10.2.1\bits\allocator.h ****  * and its documentation for any purpose is hereby granted without fee,
  31:c:\program files\daisytoolchain\arm-none-eabi\include\c++\10.2.1\bits\allocator.h ****  * provided that the above copyright notice appear in all copies and
  32:c:\program files\daisytoolchain\arm-none-eabi\include\c++\10.2.1\bits\allocator.h ****  * that both that copyright notice and this permission notice appear
  33:c:\program files\daisytoolchain\arm-none-eabi\include\c++\10.2.1\bits\allocator.h ****  * in supporting documentation.  Silicon Graphics makes no
  34:c:\program files\daisytoolchain\arm-none-eabi\include\c++\10.2.1\bits\allocator.h ****  * representations about the suitability of this software for any
  35:c:\program files\daisytoolchain\arm-none-eabi\include\c++\10.2.1\bits\allocator.h ****  * purpose.  It is provided "as is" without express or implied warranty.
  36:c:\program files\daisytoolchain\arm-none-eabi\include\c++\10.2.1\bits\allocator.h ****  */
  37:c:\program files\daisytoolchain\arm-none-eabi\include\c++\10.2.1\bits\allocator.h **** 
  38:c:\program files\daisytoolchain\arm-none-eabi\include\c++\10.2.1\bits\allocator.h **** /** @file bits/allocator.h
  39:c:\program files\daisytoolchain\arm-none-eabi\include\c++\10.2.1\bits\allocator.h ****  *  This is an internal header file, included by other library headers.
  40:c:\program files\daisytoolchain\arm-none-eabi\include\c++\10.2.1\bits\allocator.h ****  *  Do not attempt to use it directly. @headername{memory}
  41:c:\program files\daisytoolchain\arm-none-eabi\include\c++\10.2.1\bits\allocator.h ****  */
  42:c:\program files\daisytoolchain\arm-none-eabi\include\c++\10.2.1\bits\allocator.h **** 
  43:c:\program files\daisytoolchain\arm-none-eabi\include\c++\10.2.1\bits\allocator.h **** #ifndef _ALLOCATOR_H
  44:c:\program files\daisytoolchain\arm-none-eabi\include\c++\10.2.1\bits\allocator.h **** #define _ALLOCATOR_H 1
  45:c:\program files\daisytoolchain\arm-none-eabi\include\c++\10.2.1\bits\allocator.h **** 
  46:c:\program files\daisytoolchain\arm-none-eabi\include\c++\10.2.1\bits\allocator.h **** #include <bits/c++allocator.h> // Define the base class to std::allocator.
  47:c:\program files\daisytoolchain\arm-none-eabi\include\c++\10.2.1\bits\allocator.h **** #include <bits/memoryfwd.h>
  48:c:\program files\daisytoolchain\arm-none-eabi\include\c++\10.2.1\bits\allocator.h **** #if __cplusplus >= 201103L
  49:c:\program files\daisytoolchain\arm-none-eabi\include\c++\10.2.1\bits\allocator.h **** #include <type_traits>
  50:c:\program files\daisytoolchain\arm-none-eabi\include\c++\10.2.1\bits\allocator.h **** #endif
  51:c:\program files\daisytoolchain\arm-none-eabi\include\c++\10.2.1\bits\allocator.h **** 
  52:c:\program files\daisytoolchain\arm-none-eabi\include\c++\10.2.1\bits\allocator.h **** #define __cpp_lib_incomplete_container_elements 201505
  53:c:\program files\daisytoolchain\arm-none-eabi\include\c++\10.2.1\bits\allocator.h **** 
  54:c:\program files\daisytoolchain\arm-none-eabi\include\c++\10.2.1\bits\allocator.h **** namespace std _GLIBCXX_VISIBILITY(default)
  55:c:\program files\daisytoolchain\arm-none-eabi\include\c++\10.2.1\bits\allocator.h **** {
  56:c:\program files\daisytoolchain\arm-none-eabi\include\c++\10.2.1\bits\allocator.h **** _GLIBCXX_BEGIN_NAMESPACE_VERSION
  57:c:\program files\daisytoolchain\arm-none-eabi\include\c++\10.2.1\bits\allocator.h **** 
  58:c:\program files\daisytoolchain\arm-none-eabi\include\c++\10.2.1\bits\allocator.h ****   /**
  59:c:\program files\daisytoolchain\arm-none-eabi\include\c++\10.2.1\bits\allocator.h ****    *  @addtogroup allocators
  60:c:\program files\daisytoolchain\arm-none-eabi\include\c++\10.2.1\bits\allocator.h ****    *  @{
  61:c:\program files\daisytoolchain\arm-none-eabi\include\c++\10.2.1\bits\allocator.h ****    */
ARM GAS  C:\Users\Grant\AppData\Local\Temp\ccNjaI4C.s 			page 40


  62:c:\program files\daisytoolchain\arm-none-eabi\include\c++\10.2.1\bits\allocator.h **** 
  63:c:\program files\daisytoolchain\arm-none-eabi\include\c++\10.2.1\bits\allocator.h ****   /// allocator<void> specialization.
  64:c:\program files\daisytoolchain\arm-none-eabi\include\c++\10.2.1\bits\allocator.h ****   template<>
  65:c:\program files\daisytoolchain\arm-none-eabi\include\c++\10.2.1\bits\allocator.h ****     class allocator<void>
  66:c:\program files\daisytoolchain\arm-none-eabi\include\c++\10.2.1\bits\allocator.h ****     {
  67:c:\program files\daisytoolchain\arm-none-eabi\include\c++\10.2.1\bits\allocator.h ****     public:
  68:c:\program files\daisytoolchain\arm-none-eabi\include\c++\10.2.1\bits\allocator.h ****       typedef void        value_type;
  69:c:\program files\daisytoolchain\arm-none-eabi\include\c++\10.2.1\bits\allocator.h ****       typedef size_t      size_type;
  70:c:\program files\daisytoolchain\arm-none-eabi\include\c++\10.2.1\bits\allocator.h ****       typedef ptrdiff_t   difference_type;
  71:c:\program files\daisytoolchain\arm-none-eabi\include\c++\10.2.1\bits\allocator.h **** #if __cplusplus <= 201703L
  72:c:\program files\daisytoolchain\arm-none-eabi\include\c++\10.2.1\bits\allocator.h ****       typedef void*       pointer;
  73:c:\program files\daisytoolchain\arm-none-eabi\include\c++\10.2.1\bits\allocator.h ****       typedef const void* const_pointer;
  74:c:\program files\daisytoolchain\arm-none-eabi\include\c++\10.2.1\bits\allocator.h **** 
  75:c:\program files\daisytoolchain\arm-none-eabi\include\c++\10.2.1\bits\allocator.h ****       template<typename _Tp1>
  76:c:\program files\daisytoolchain\arm-none-eabi\include\c++\10.2.1\bits\allocator.h **** 	struct rebind
  77:c:\program files\daisytoolchain\arm-none-eabi\include\c++\10.2.1\bits\allocator.h **** 	{ typedef allocator<_Tp1> other; };
  78:c:\program files\daisytoolchain\arm-none-eabi\include\c++\10.2.1\bits\allocator.h **** #else
  79:c:\program files\daisytoolchain\arm-none-eabi\include\c++\10.2.1\bits\allocator.h ****       allocator() = default;
  80:c:\program files\daisytoolchain\arm-none-eabi\include\c++\10.2.1\bits\allocator.h **** 
  81:c:\program files\daisytoolchain\arm-none-eabi\include\c++\10.2.1\bits\allocator.h ****       template<typename _Up>
  82:c:\program files\daisytoolchain\arm-none-eabi\include\c++\10.2.1\bits\allocator.h **** 	constexpr
  83:c:\program files\daisytoolchain\arm-none-eabi\include\c++\10.2.1\bits\allocator.h **** 	allocator(const allocator<_Up>&) { }
  84:c:\program files\daisytoolchain\arm-none-eabi\include\c++\10.2.1\bits\allocator.h **** #endif // ! C++20
  85:c:\program files\daisytoolchain\arm-none-eabi\include\c++\10.2.1\bits\allocator.h **** 
  86:c:\program files\daisytoolchain\arm-none-eabi\include\c++\10.2.1\bits\allocator.h **** #if __cplusplus >= 201103L && __cplusplus <= 201703L
  87:c:\program files\daisytoolchain\arm-none-eabi\include\c++\10.2.1\bits\allocator.h ****       // _GLIBCXX_RESOLVE_LIB_DEFECTS
  88:c:\program files\daisytoolchain\arm-none-eabi\include\c++\10.2.1\bits\allocator.h ****       // 2103. std::allocator propagate_on_container_move_assignment
  89:c:\program files\daisytoolchain\arm-none-eabi\include\c++\10.2.1\bits\allocator.h ****       typedef true_type propagate_on_container_move_assignment;
  90:c:\program files\daisytoolchain\arm-none-eabi\include\c++\10.2.1\bits\allocator.h **** 
  91:c:\program files\daisytoolchain\arm-none-eabi\include\c++\10.2.1\bits\allocator.h ****       typedef true_type is_always_equal;
  92:c:\program files\daisytoolchain\arm-none-eabi\include\c++\10.2.1\bits\allocator.h **** 
  93:c:\program files\daisytoolchain\arm-none-eabi\include\c++\10.2.1\bits\allocator.h ****       template<typename _Up, typename... _Args>
  94:c:\program files\daisytoolchain\arm-none-eabi\include\c++\10.2.1\bits\allocator.h **** 	void
  95:c:\program files\daisytoolchain\arm-none-eabi\include\c++\10.2.1\bits\allocator.h **** 	construct(_Up* __p, _Args&&... __args)
  96:c:\program files\daisytoolchain\arm-none-eabi\include\c++\10.2.1\bits\allocator.h **** 	noexcept(std::is_nothrow_constructible<_Up, _Args...>::value)
  97:c:\program files\daisytoolchain\arm-none-eabi\include\c++\10.2.1\bits\allocator.h **** 	{ ::new((void *)__p) _Up(std::forward<_Args>(__args)...); }
  98:c:\program files\daisytoolchain\arm-none-eabi\include\c++\10.2.1\bits\allocator.h **** 
  99:c:\program files\daisytoolchain\arm-none-eabi\include\c++\10.2.1\bits\allocator.h ****       template<typename _Up>
 100:c:\program files\daisytoolchain\arm-none-eabi\include\c++\10.2.1\bits\allocator.h **** 	void
 101:c:\program files\daisytoolchain\arm-none-eabi\include\c++\10.2.1\bits\allocator.h **** 	destroy(_Up* __p)
 102:c:\program files\daisytoolchain\arm-none-eabi\include\c++\10.2.1\bits\allocator.h **** 	noexcept(std::is_nothrow_destructible<_Up>::value)
 103:c:\program files\daisytoolchain\arm-none-eabi\include\c++\10.2.1\bits\allocator.h **** 	{ __p->~_Up(); }
 104:c:\program files\daisytoolchain\arm-none-eabi\include\c++\10.2.1\bits\allocator.h **** #endif // C++11 to C++17
 105:c:\program files\daisytoolchain\arm-none-eabi\include\c++\10.2.1\bits\allocator.h ****     };
 106:c:\program files\daisytoolchain\arm-none-eabi\include\c++\10.2.1\bits\allocator.h **** 
 107:c:\program files\daisytoolchain\arm-none-eabi\include\c++\10.2.1\bits\allocator.h ****   /**
 108:c:\program files\daisytoolchain\arm-none-eabi\include\c++\10.2.1\bits\allocator.h ****    * @brief  The @a standard allocator, as per [20.4].
 109:c:\program files\daisytoolchain\arm-none-eabi\include\c++\10.2.1\bits\allocator.h ****    *
 110:c:\program files\daisytoolchain\arm-none-eabi\include\c++\10.2.1\bits\allocator.h ****    *  See https://gcc.gnu.org/onlinedocs/libstdc++/manual/memory.html#std.util.memory.allocator
 111:c:\program files\daisytoolchain\arm-none-eabi\include\c++\10.2.1\bits\allocator.h ****    *  for further details.
 112:c:\program files\daisytoolchain\arm-none-eabi\include\c++\10.2.1\bits\allocator.h ****    *
 113:c:\program files\daisytoolchain\arm-none-eabi\include\c++\10.2.1\bits\allocator.h ****    *  @tparam  _Tp  Type of allocated object.
 114:c:\program files\daisytoolchain\arm-none-eabi\include\c++\10.2.1\bits\allocator.h ****    */
 115:c:\program files\daisytoolchain\arm-none-eabi\include\c++\10.2.1\bits\allocator.h ****   template<typename _Tp>
 116:c:\program files\daisytoolchain\arm-none-eabi\include\c++\10.2.1\bits\allocator.h ****     class allocator : public __allocator_base<_Tp>
 117:c:\program files\daisytoolchain\arm-none-eabi\include\c++\10.2.1\bits\allocator.h ****     {
 118:c:\program files\daisytoolchain\arm-none-eabi\include\c++\10.2.1\bits\allocator.h ****     public:
ARM GAS  C:\Users\Grant\AppData\Local\Temp\ccNjaI4C.s 			page 41


 119:c:\program files\daisytoolchain\arm-none-eabi\include\c++\10.2.1\bits\allocator.h ****       typedef _Tp        value_type;
 120:c:\program files\daisytoolchain\arm-none-eabi\include\c++\10.2.1\bits\allocator.h ****       typedef size_t     size_type;
 121:c:\program files\daisytoolchain\arm-none-eabi\include\c++\10.2.1\bits\allocator.h ****       typedef ptrdiff_t  difference_type;
 122:c:\program files\daisytoolchain\arm-none-eabi\include\c++\10.2.1\bits\allocator.h **** #if __cplusplus <= 201703L
 123:c:\program files\daisytoolchain\arm-none-eabi\include\c++\10.2.1\bits\allocator.h ****       typedef _Tp*       pointer;
 124:c:\program files\daisytoolchain\arm-none-eabi\include\c++\10.2.1\bits\allocator.h ****       typedef const _Tp* const_pointer;
 125:c:\program files\daisytoolchain\arm-none-eabi\include\c++\10.2.1\bits\allocator.h ****       typedef _Tp&       reference;
 126:c:\program files\daisytoolchain\arm-none-eabi\include\c++\10.2.1\bits\allocator.h ****       typedef const _Tp& const_reference;
 127:c:\program files\daisytoolchain\arm-none-eabi\include\c++\10.2.1\bits\allocator.h **** 
 128:c:\program files\daisytoolchain\arm-none-eabi\include\c++\10.2.1\bits\allocator.h ****       template<typename _Tp1>
 129:c:\program files\daisytoolchain\arm-none-eabi\include\c++\10.2.1\bits\allocator.h **** 	struct rebind
 130:c:\program files\daisytoolchain\arm-none-eabi\include\c++\10.2.1\bits\allocator.h **** 	{ typedef allocator<_Tp1> other; };
 131:c:\program files\daisytoolchain\arm-none-eabi\include\c++\10.2.1\bits\allocator.h **** #endif
 132:c:\program files\daisytoolchain\arm-none-eabi\include\c++\10.2.1\bits\allocator.h **** 
 133:c:\program files\daisytoolchain\arm-none-eabi\include\c++\10.2.1\bits\allocator.h **** #if __cplusplus >= 201103L
 134:c:\program files\daisytoolchain\arm-none-eabi\include\c++\10.2.1\bits\allocator.h ****       // _GLIBCXX_RESOLVE_LIB_DEFECTS
 135:c:\program files\daisytoolchain\arm-none-eabi\include\c++\10.2.1\bits\allocator.h ****       // 2103. std::allocator propagate_on_container_move_assignment
 136:c:\program files\daisytoolchain\arm-none-eabi\include\c++\10.2.1\bits\allocator.h ****       typedef true_type propagate_on_container_move_assignment;
 137:c:\program files\daisytoolchain\arm-none-eabi\include\c++\10.2.1\bits\allocator.h **** 
 138:c:\program files\daisytoolchain\arm-none-eabi\include\c++\10.2.1\bits\allocator.h ****       typedef true_type is_always_equal;
 139:c:\program files\daisytoolchain\arm-none-eabi\include\c++\10.2.1\bits\allocator.h **** #endif
 140:c:\program files\daisytoolchain\arm-none-eabi\include\c++\10.2.1\bits\allocator.h **** 
 141:c:\program files\daisytoolchain\arm-none-eabi\include\c++\10.2.1\bits\allocator.h ****       // _GLIBCXX_RESOLVE_LIB_DEFECTS
 142:c:\program files\daisytoolchain\arm-none-eabi\include\c++\10.2.1\bits\allocator.h ****       // 3035. std::allocator's constructors should be constexpr
 143:c:\program files\daisytoolchain\arm-none-eabi\include\c++\10.2.1\bits\allocator.h ****       _GLIBCXX20_CONSTEXPR
 144:c:\program files\daisytoolchain\arm-none-eabi\include\c++\10.2.1\bits\allocator.h ****       allocator() _GLIBCXX_NOTHROW { }
 756              		.loc 14 144 7 view .LVU173
 757              	.LBB1406:
 758              	.LBI1406:
  79:c:\program files\daisytoolchain\arm-none-eabi\include\c++\10.2.1\ext\new_allocator.h **** 
 759              		.loc 13 79 7 view .LVU174
  79:c:\program files\daisytoolchain\arm-none-eabi\include\c++\10.2.1\ext\new_allocator.h **** 
 760              		.loc 13 79 7 is_stmt 0 view .LVU175
 761              	.LBE1406:
 762              	.LBE1405:
 763              	.LBB1407:
 764              	.LBI1315:
  99:c:\program files\daisytoolchain\arm-none-eabi\include\c++\10.2.1\bits\stl_vector.h **** 	{ }
 100:c:\program files\daisytoolchain\arm-none-eabi\include\c++\10.2.1\bits\stl_vector.h **** 
 101:c:\program files\daisytoolchain\arm-none-eabi\include\c++\10.2.1\bits\stl_vector.h **** #if __cplusplus >= 201103L
 102:c:\program files\daisytoolchain\arm-none-eabi\include\c++\10.2.1\bits\stl_vector.h **** 	_Vector_impl_data(_Vector_impl_data&& __x) noexcept
 103:c:\program files\daisytoolchain\arm-none-eabi\include\c++\10.2.1\bits\stl_vector.h **** 	: _M_start(__x._M_start), _M_finish(__x._M_finish),
 104:c:\program files\daisytoolchain\arm-none-eabi\include\c++\10.2.1\bits\stl_vector.h **** 	  _M_end_of_storage(__x._M_end_of_storage)
 105:c:\program files\daisytoolchain\arm-none-eabi\include\c++\10.2.1\bits\stl_vector.h **** 	{ __x._M_start = __x._M_finish = __x._M_end_of_storage = pointer(); }
 106:c:\program files\daisytoolchain\arm-none-eabi\include\c++\10.2.1\bits\stl_vector.h **** #endif
 107:c:\program files\daisytoolchain\arm-none-eabi\include\c++\10.2.1\bits\stl_vector.h **** 
 108:c:\program files\daisytoolchain\arm-none-eabi\include\c++\10.2.1\bits\stl_vector.h **** 	void
 109:c:\program files\daisytoolchain\arm-none-eabi\include\c++\10.2.1\bits\stl_vector.h **** 	_M_copy_data(_Vector_impl_data const& __x) _GLIBCXX_NOEXCEPT
 110:c:\program files\daisytoolchain\arm-none-eabi\include\c++\10.2.1\bits\stl_vector.h **** 	{
 111:c:\program files\daisytoolchain\arm-none-eabi\include\c++\10.2.1\bits\stl_vector.h **** 	  _M_start = __x._M_start;
 112:c:\program files\daisytoolchain\arm-none-eabi\include\c++\10.2.1\bits\stl_vector.h **** 	  _M_finish = __x._M_finish;
 113:c:\program files\daisytoolchain\arm-none-eabi\include\c++\10.2.1\bits\stl_vector.h **** 	  _M_end_of_storage = __x._M_end_of_storage;
 114:c:\program files\daisytoolchain\arm-none-eabi\include\c++\10.2.1\bits\stl_vector.h **** 	}
 115:c:\program files\daisytoolchain\arm-none-eabi\include\c++\10.2.1\bits\stl_vector.h **** 
 116:c:\program files\daisytoolchain\arm-none-eabi\include\c++\10.2.1\bits\stl_vector.h **** 	void
 117:c:\program files\daisytoolchain\arm-none-eabi\include\c++\10.2.1\bits\stl_vector.h **** 	_M_swap_data(_Vector_impl_data& __x) _GLIBCXX_NOEXCEPT
 118:c:\program files\daisytoolchain\arm-none-eabi\include\c++\10.2.1\bits\stl_vector.h **** 	{
ARM GAS  C:\Users\Grant\AppData\Local\Temp\ccNjaI4C.s 			page 42


 119:c:\program files\daisytoolchain\arm-none-eabi\include\c++\10.2.1\bits\stl_vector.h **** 	  // Do not use std::swap(_M_start, __x._M_start), etc as it loses
 120:c:\program files\daisytoolchain\arm-none-eabi\include\c++\10.2.1\bits\stl_vector.h **** 	  // information used by TBAA.
 121:c:\program files\daisytoolchain\arm-none-eabi\include\c++\10.2.1\bits\stl_vector.h **** 	  _Vector_impl_data __tmp;
 122:c:\program files\daisytoolchain\arm-none-eabi\include\c++\10.2.1\bits\stl_vector.h **** 	  __tmp._M_copy_data(*this);
 123:c:\program files\daisytoolchain\arm-none-eabi\include\c++\10.2.1\bits\stl_vector.h **** 	  _M_copy_data(__x);
 124:c:\program files\daisytoolchain\arm-none-eabi\include\c++\10.2.1\bits\stl_vector.h **** 	  __x._M_copy_data(__tmp);
 125:c:\program files\daisytoolchain\arm-none-eabi\include\c++\10.2.1\bits\stl_vector.h **** 	}
 126:c:\program files\daisytoolchain\arm-none-eabi\include\c++\10.2.1\bits\stl_vector.h ****       };
 127:c:\program files\daisytoolchain\arm-none-eabi\include\c++\10.2.1\bits\stl_vector.h **** 
 128:c:\program files\daisytoolchain\arm-none-eabi\include\c++\10.2.1\bits\stl_vector.h ****       struct _Vector_impl
 129:c:\program files\daisytoolchain\arm-none-eabi\include\c++\10.2.1\bits\stl_vector.h **** 	: public _Tp_alloc_type, public _Vector_impl_data
 130:c:\program files\daisytoolchain\arm-none-eabi\include\c++\10.2.1\bits\stl_vector.h ****       {
 131:c:\program files\daisytoolchain\arm-none-eabi\include\c++\10.2.1\bits\stl_vector.h **** 	_Vector_impl() _GLIBCXX_NOEXCEPT_IF(
 132:c:\program files\daisytoolchain\arm-none-eabi\include\c++\10.2.1\bits\stl_vector.h **** 	    is_nothrow_default_constructible<_Tp_alloc_type>::value)
 133:c:\program files\daisytoolchain\arm-none-eabi\include\c++\10.2.1\bits\stl_vector.h **** 	: _Tp_alloc_type()
 134:c:\program files\daisytoolchain\arm-none-eabi\include\c++\10.2.1\bits\stl_vector.h **** 	{ }
 135:c:\program files\daisytoolchain\arm-none-eabi\include\c++\10.2.1\bits\stl_vector.h **** 
 136:c:\program files\daisytoolchain\arm-none-eabi\include\c++\10.2.1\bits\stl_vector.h **** 	_Vector_impl(_Tp_alloc_type const& __a) _GLIBCXX_NOEXCEPT
 137:c:\program files\daisytoolchain\arm-none-eabi\include\c++\10.2.1\bits\stl_vector.h **** 	: _Tp_alloc_type(__a)
 138:c:\program files\daisytoolchain\arm-none-eabi\include\c++\10.2.1\bits\stl_vector.h **** 	{ }
 139:c:\program files\daisytoolchain\arm-none-eabi\include\c++\10.2.1\bits\stl_vector.h **** 
 140:c:\program files\daisytoolchain\arm-none-eabi\include\c++\10.2.1\bits\stl_vector.h **** #if __cplusplus >= 201103L
 141:c:\program files\daisytoolchain\arm-none-eabi\include\c++\10.2.1\bits\stl_vector.h **** 	// Not defaulted, to enforce noexcept(true) even when
 142:c:\program files\daisytoolchain\arm-none-eabi\include\c++\10.2.1\bits\stl_vector.h **** 	// !is_nothrow_move_constructible<_Tp_alloc_type>.
 143:c:\program files\daisytoolchain\arm-none-eabi\include\c++\10.2.1\bits\stl_vector.h **** 	_Vector_impl(_Vector_impl&& __x) noexcept
 144:c:\program files\daisytoolchain\arm-none-eabi\include\c++\10.2.1\bits\stl_vector.h **** 	: _Tp_alloc_type(std::move(__x)), _Vector_impl_data(std::move(__x))
 145:c:\program files\daisytoolchain\arm-none-eabi\include\c++\10.2.1\bits\stl_vector.h **** 	{ }
 146:c:\program files\daisytoolchain\arm-none-eabi\include\c++\10.2.1\bits\stl_vector.h **** 
 147:c:\program files\daisytoolchain\arm-none-eabi\include\c++\10.2.1\bits\stl_vector.h **** 	_Vector_impl(_Tp_alloc_type&& __a) noexcept
 148:c:\program files\daisytoolchain\arm-none-eabi\include\c++\10.2.1\bits\stl_vector.h **** 	: _Tp_alloc_type(std::move(__a))
 149:c:\program files\daisytoolchain\arm-none-eabi\include\c++\10.2.1\bits\stl_vector.h **** 	{ }
 150:c:\program files\daisytoolchain\arm-none-eabi\include\c++\10.2.1\bits\stl_vector.h **** 
 151:c:\program files\daisytoolchain\arm-none-eabi\include\c++\10.2.1\bits\stl_vector.h **** 	_Vector_impl(_Tp_alloc_type&& __a, _Vector_impl&& __rv) noexcept
 152:c:\program files\daisytoolchain\arm-none-eabi\include\c++\10.2.1\bits\stl_vector.h **** 	: _Tp_alloc_type(std::move(__a)), _Vector_impl_data(std::move(__rv))
 153:c:\program files\daisytoolchain\arm-none-eabi\include\c++\10.2.1\bits\stl_vector.h **** 	{ }
 154:c:\program files\daisytoolchain\arm-none-eabi\include\c++\10.2.1\bits\stl_vector.h **** #endif
 155:c:\program files\daisytoolchain\arm-none-eabi\include\c++\10.2.1\bits\stl_vector.h **** 
 156:c:\program files\daisytoolchain\arm-none-eabi\include\c++\10.2.1\bits\stl_vector.h **** #if _GLIBCXX_SANITIZE_STD_ALLOCATOR && _GLIBCXX_SANITIZE_VECTOR
 157:c:\program files\daisytoolchain\arm-none-eabi\include\c++\10.2.1\bits\stl_vector.h **** 	template<typename = _Tp_alloc_type>
 158:c:\program files\daisytoolchain\arm-none-eabi\include\c++\10.2.1\bits\stl_vector.h **** 	  struct _Asan
 159:c:\program files\daisytoolchain\arm-none-eabi\include\c++\10.2.1\bits\stl_vector.h **** 	  {
 160:c:\program files\daisytoolchain\arm-none-eabi\include\c++\10.2.1\bits\stl_vector.h **** 	    typedef typename __gnu_cxx::__alloc_traits<_Tp_alloc_type>
 161:c:\program files\daisytoolchain\arm-none-eabi\include\c++\10.2.1\bits\stl_vector.h **** 	      ::size_type size_type;
 162:c:\program files\daisytoolchain\arm-none-eabi\include\c++\10.2.1\bits\stl_vector.h **** 
 163:c:\program files\daisytoolchain\arm-none-eabi\include\c++\10.2.1\bits\stl_vector.h **** 	    static void _S_shrink(_Vector_impl&, size_type) { }
 164:c:\program files\daisytoolchain\arm-none-eabi\include\c++\10.2.1\bits\stl_vector.h **** 	    static void _S_on_dealloc(_Vector_impl&) { }
 165:c:\program files\daisytoolchain\arm-none-eabi\include\c++\10.2.1\bits\stl_vector.h **** 
 166:c:\program files\daisytoolchain\arm-none-eabi\include\c++\10.2.1\bits\stl_vector.h **** 	    typedef _Vector_impl& _Reinit;
 167:c:\program files\daisytoolchain\arm-none-eabi\include\c++\10.2.1\bits\stl_vector.h **** 
 168:c:\program files\daisytoolchain\arm-none-eabi\include\c++\10.2.1\bits\stl_vector.h **** 	    struct _Grow
 169:c:\program files\daisytoolchain\arm-none-eabi\include\c++\10.2.1\bits\stl_vector.h **** 	    {
 170:c:\program files\daisytoolchain\arm-none-eabi\include\c++\10.2.1\bits\stl_vector.h **** 	      _Grow(_Vector_impl&, size_type) { }
 171:c:\program files\daisytoolchain\arm-none-eabi\include\c++\10.2.1\bits\stl_vector.h **** 	      void _M_grew(size_type) { }
 172:c:\program files\daisytoolchain\arm-none-eabi\include\c++\10.2.1\bits\stl_vector.h **** 	    };
 173:c:\program files\daisytoolchain\arm-none-eabi\include\c++\10.2.1\bits\stl_vector.h **** 	  };
 174:c:\program files\daisytoolchain\arm-none-eabi\include\c++\10.2.1\bits\stl_vector.h **** 
 175:c:\program files\daisytoolchain\arm-none-eabi\include\c++\10.2.1\bits\stl_vector.h **** 	// Enable ASan annotations for memory obtained from std::allocator.
ARM GAS  C:\Users\Grant\AppData\Local\Temp\ccNjaI4C.s 			page 43


 176:c:\program files\daisytoolchain\arm-none-eabi\include\c++\10.2.1\bits\stl_vector.h **** 	template<typename _Up>
 177:c:\program files\daisytoolchain\arm-none-eabi\include\c++\10.2.1\bits\stl_vector.h **** 	  struct _Asan<allocator<_Up> >
 178:c:\program files\daisytoolchain\arm-none-eabi\include\c++\10.2.1\bits\stl_vector.h **** 	  {
 179:c:\program files\daisytoolchain\arm-none-eabi\include\c++\10.2.1\bits\stl_vector.h **** 	    typedef typename __gnu_cxx::__alloc_traits<_Tp_alloc_type>
 180:c:\program files\daisytoolchain\arm-none-eabi\include\c++\10.2.1\bits\stl_vector.h **** 	      ::size_type size_type;
 181:c:\program files\daisytoolchain\arm-none-eabi\include\c++\10.2.1\bits\stl_vector.h **** 
 182:c:\program files\daisytoolchain\arm-none-eabi\include\c++\10.2.1\bits\stl_vector.h **** 	    // Adjust ASan annotation for [_M_start, _M_end_of_storage) to
 183:c:\program files\daisytoolchain\arm-none-eabi\include\c++\10.2.1\bits\stl_vector.h **** 	    // mark end of valid region as __curr instead of __prev.
 184:c:\program files\daisytoolchain\arm-none-eabi\include\c++\10.2.1\bits\stl_vector.h **** 	    static void
 185:c:\program files\daisytoolchain\arm-none-eabi\include\c++\10.2.1\bits\stl_vector.h **** 	    _S_adjust(_Vector_impl& __impl, pointer __prev, pointer __curr)
 186:c:\program files\daisytoolchain\arm-none-eabi\include\c++\10.2.1\bits\stl_vector.h **** 	    {
 187:c:\program files\daisytoolchain\arm-none-eabi\include\c++\10.2.1\bits\stl_vector.h **** 	      __sanitizer_annotate_contiguous_container(__impl._M_start,
 188:c:\program files\daisytoolchain\arm-none-eabi\include\c++\10.2.1\bits\stl_vector.h **** 		  __impl._M_end_of_storage, __prev, __curr);
 189:c:\program files\daisytoolchain\arm-none-eabi\include\c++\10.2.1\bits\stl_vector.h **** 	    }
 190:c:\program files\daisytoolchain\arm-none-eabi\include\c++\10.2.1\bits\stl_vector.h **** 
 191:c:\program files\daisytoolchain\arm-none-eabi\include\c++\10.2.1\bits\stl_vector.h **** 	    static void
 192:c:\program files\daisytoolchain\arm-none-eabi\include\c++\10.2.1\bits\stl_vector.h **** 	    _S_grow(_Vector_impl& __impl, size_type __n)
 193:c:\program files\daisytoolchain\arm-none-eabi\include\c++\10.2.1\bits\stl_vector.h **** 	    { _S_adjust(__impl, __impl._M_finish, __impl._M_finish + __n); }
 194:c:\program files\daisytoolchain\arm-none-eabi\include\c++\10.2.1\bits\stl_vector.h **** 
 195:c:\program files\daisytoolchain\arm-none-eabi\include\c++\10.2.1\bits\stl_vector.h **** 	    static void
 196:c:\program files\daisytoolchain\arm-none-eabi\include\c++\10.2.1\bits\stl_vector.h **** 	    _S_shrink(_Vector_impl& __impl, size_type __n)
 197:c:\program files\daisytoolchain\arm-none-eabi\include\c++\10.2.1\bits\stl_vector.h **** 	    { _S_adjust(__impl, __impl._M_finish + __n, __impl._M_finish); }
 198:c:\program files\daisytoolchain\arm-none-eabi\include\c++\10.2.1\bits\stl_vector.h **** 
 199:c:\program files\daisytoolchain\arm-none-eabi\include\c++\10.2.1\bits\stl_vector.h **** 	    static void
 200:c:\program files\daisytoolchain\arm-none-eabi\include\c++\10.2.1\bits\stl_vector.h **** 	    _S_on_dealloc(_Vector_impl& __impl)
 201:c:\program files\daisytoolchain\arm-none-eabi\include\c++\10.2.1\bits\stl_vector.h **** 	    {
 202:c:\program files\daisytoolchain\arm-none-eabi\include\c++\10.2.1\bits\stl_vector.h **** 	      if (__impl._M_start)
 203:c:\program files\daisytoolchain\arm-none-eabi\include\c++\10.2.1\bits\stl_vector.h **** 		_S_adjust(__impl, __impl._M_finish, __impl._M_end_of_storage);
 204:c:\program files\daisytoolchain\arm-none-eabi\include\c++\10.2.1\bits\stl_vector.h **** 	    }
 205:c:\program files\daisytoolchain\arm-none-eabi\include\c++\10.2.1\bits\stl_vector.h **** 
 206:c:\program files\daisytoolchain\arm-none-eabi\include\c++\10.2.1\bits\stl_vector.h **** 	    // Used on reallocation to tell ASan unused capacity is invalid.
 207:c:\program files\daisytoolchain\arm-none-eabi\include\c++\10.2.1\bits\stl_vector.h **** 	    struct _Reinit
 208:c:\program files\daisytoolchain\arm-none-eabi\include\c++\10.2.1\bits\stl_vector.h **** 	    {
 209:c:\program files\daisytoolchain\arm-none-eabi\include\c++\10.2.1\bits\stl_vector.h **** 	      explicit _Reinit(_Vector_impl& __impl) : _M_impl(__impl)
 210:c:\program files\daisytoolchain\arm-none-eabi\include\c++\10.2.1\bits\stl_vector.h **** 	      {
 211:c:\program files\daisytoolchain\arm-none-eabi\include\c++\10.2.1\bits\stl_vector.h **** 		// Mark unused capacity as valid again before deallocating it.
 212:c:\program files\daisytoolchain\arm-none-eabi\include\c++\10.2.1\bits\stl_vector.h **** 		_S_on_dealloc(_M_impl);
 213:c:\program files\daisytoolchain\arm-none-eabi\include\c++\10.2.1\bits\stl_vector.h **** 	      }
 214:c:\program files\daisytoolchain\arm-none-eabi\include\c++\10.2.1\bits\stl_vector.h **** 
 215:c:\program files\daisytoolchain\arm-none-eabi\include\c++\10.2.1\bits\stl_vector.h **** 	      ~_Reinit()
 216:c:\program files\daisytoolchain\arm-none-eabi\include\c++\10.2.1\bits\stl_vector.h **** 	      {
 217:c:\program files\daisytoolchain\arm-none-eabi\include\c++\10.2.1\bits\stl_vector.h **** 		// Mark unused capacity as invalid after reallocation.
 218:c:\program files\daisytoolchain\arm-none-eabi\include\c++\10.2.1\bits\stl_vector.h **** 		if (_M_impl._M_start)
 219:c:\program files\daisytoolchain\arm-none-eabi\include\c++\10.2.1\bits\stl_vector.h **** 		  _S_adjust(_M_impl, _M_impl._M_end_of_storage,
 220:c:\program files\daisytoolchain\arm-none-eabi\include\c++\10.2.1\bits\stl_vector.h **** 			    _M_impl._M_finish);
 221:c:\program files\daisytoolchain\arm-none-eabi\include\c++\10.2.1\bits\stl_vector.h **** 	      }
 222:c:\program files\daisytoolchain\arm-none-eabi\include\c++\10.2.1\bits\stl_vector.h **** 
 223:c:\program files\daisytoolchain\arm-none-eabi\include\c++\10.2.1\bits\stl_vector.h **** 	      _Vector_impl& _M_impl;
 224:c:\program files\daisytoolchain\arm-none-eabi\include\c++\10.2.1\bits\stl_vector.h **** 
 225:c:\program files\daisytoolchain\arm-none-eabi\include\c++\10.2.1\bits\stl_vector.h **** #if __cplusplus >= 201103L
 226:c:\program files\daisytoolchain\arm-none-eabi\include\c++\10.2.1\bits\stl_vector.h **** 	      _Reinit(const _Reinit&) = delete;
 227:c:\program files\daisytoolchain\arm-none-eabi\include\c++\10.2.1\bits\stl_vector.h **** 	      _Reinit& operator=(const _Reinit&) = delete;
 228:c:\program files\daisytoolchain\arm-none-eabi\include\c++\10.2.1\bits\stl_vector.h **** #endif
 229:c:\program files\daisytoolchain\arm-none-eabi\include\c++\10.2.1\bits\stl_vector.h **** 	    };
 230:c:\program files\daisytoolchain\arm-none-eabi\include\c++\10.2.1\bits\stl_vector.h **** 
 231:c:\program files\daisytoolchain\arm-none-eabi\include\c++\10.2.1\bits\stl_vector.h **** 	    // Tell ASan when unused capacity is initialized to be valid.
 232:c:\program files\daisytoolchain\arm-none-eabi\include\c++\10.2.1\bits\stl_vector.h **** 	    struct _Grow
ARM GAS  C:\Users\Grant\AppData\Local\Temp\ccNjaI4C.s 			page 44


 233:c:\program files\daisytoolchain\arm-none-eabi\include\c++\10.2.1\bits\stl_vector.h **** 	    {
 234:c:\program files\daisytoolchain\arm-none-eabi\include\c++\10.2.1\bits\stl_vector.h **** 	      _Grow(_Vector_impl& __impl, size_type __n)
 235:c:\program files\daisytoolchain\arm-none-eabi\include\c++\10.2.1\bits\stl_vector.h **** 	      : _M_impl(__impl), _M_n(__n)
 236:c:\program files\daisytoolchain\arm-none-eabi\include\c++\10.2.1\bits\stl_vector.h **** 	      { _S_grow(_M_impl, __n); }
 237:c:\program files\daisytoolchain\arm-none-eabi\include\c++\10.2.1\bits\stl_vector.h **** 
 238:c:\program files\daisytoolchain\arm-none-eabi\include\c++\10.2.1\bits\stl_vector.h **** 	      ~_Grow() { if (_M_n) _S_shrink(_M_impl, _M_n); }
 239:c:\program files\daisytoolchain\arm-none-eabi\include\c++\10.2.1\bits\stl_vector.h **** 
 240:c:\program files\daisytoolchain\arm-none-eabi\include\c++\10.2.1\bits\stl_vector.h **** 	      void _M_grew(size_type __n) { _M_n -= __n; }
 241:c:\program files\daisytoolchain\arm-none-eabi\include\c++\10.2.1\bits\stl_vector.h **** 
 242:c:\program files\daisytoolchain\arm-none-eabi\include\c++\10.2.1\bits\stl_vector.h **** #if __cplusplus >= 201103L
 243:c:\program files\daisytoolchain\arm-none-eabi\include\c++\10.2.1\bits\stl_vector.h **** 	      _Grow(const _Grow&) = delete;
 244:c:\program files\daisytoolchain\arm-none-eabi\include\c++\10.2.1\bits\stl_vector.h **** 	      _Grow& operator=(const _Grow&) = delete;
 245:c:\program files\daisytoolchain\arm-none-eabi\include\c++\10.2.1\bits\stl_vector.h **** #endif
 246:c:\program files\daisytoolchain\arm-none-eabi\include\c++\10.2.1\bits\stl_vector.h **** 	    private:
 247:c:\program files\daisytoolchain\arm-none-eabi\include\c++\10.2.1\bits\stl_vector.h **** 	      _Vector_impl& _M_impl;
 248:c:\program files\daisytoolchain\arm-none-eabi\include\c++\10.2.1\bits\stl_vector.h **** 	      size_type _M_n;
 249:c:\program files\daisytoolchain\arm-none-eabi\include\c++\10.2.1\bits\stl_vector.h **** 	    };
 250:c:\program files\daisytoolchain\arm-none-eabi\include\c++\10.2.1\bits\stl_vector.h **** 	  };
 251:c:\program files\daisytoolchain\arm-none-eabi\include\c++\10.2.1\bits\stl_vector.h **** 
 252:c:\program files\daisytoolchain\arm-none-eabi\include\c++\10.2.1\bits\stl_vector.h **** #define _GLIBCXX_ASAN_ANNOTATE_REINIT \
 253:c:\program files\daisytoolchain\arm-none-eabi\include\c++\10.2.1\bits\stl_vector.h ****   typename _Base::_Vector_impl::template _Asan<>::_Reinit const \
 254:c:\program files\daisytoolchain\arm-none-eabi\include\c++\10.2.1\bits\stl_vector.h **** 	__attribute__((__unused__)) __reinit_guard(this->_M_impl)
 255:c:\program files\daisytoolchain\arm-none-eabi\include\c++\10.2.1\bits\stl_vector.h **** #define _GLIBCXX_ASAN_ANNOTATE_GROW(n) \
 256:c:\program files\daisytoolchain\arm-none-eabi\include\c++\10.2.1\bits\stl_vector.h ****   typename _Base::_Vector_impl::template _Asan<>::_Grow \
 257:c:\program files\daisytoolchain\arm-none-eabi\include\c++\10.2.1\bits\stl_vector.h **** 	__attribute__((__unused__)) __grow_guard(this->_M_impl, (n))
 258:c:\program files\daisytoolchain\arm-none-eabi\include\c++\10.2.1\bits\stl_vector.h **** #define _GLIBCXX_ASAN_ANNOTATE_GREW(n) __grow_guard._M_grew(n)
 259:c:\program files\daisytoolchain\arm-none-eabi\include\c++\10.2.1\bits\stl_vector.h **** #define _GLIBCXX_ASAN_ANNOTATE_SHRINK(n) \
 260:c:\program files\daisytoolchain\arm-none-eabi\include\c++\10.2.1\bits\stl_vector.h ****   _Base::_Vector_impl::template _Asan<>::_S_shrink(this->_M_impl, n)
 261:c:\program files\daisytoolchain\arm-none-eabi\include\c++\10.2.1\bits\stl_vector.h **** #define _GLIBCXX_ASAN_ANNOTATE_BEFORE_DEALLOC \
 262:c:\program files\daisytoolchain\arm-none-eabi\include\c++\10.2.1\bits\stl_vector.h ****   _Base::_Vector_impl::template _Asan<>::_S_on_dealloc(this->_M_impl)
 263:c:\program files\daisytoolchain\arm-none-eabi\include\c++\10.2.1\bits\stl_vector.h **** #else // ! (_GLIBCXX_SANITIZE_STD_ALLOCATOR && _GLIBCXX_SANITIZE_VECTOR)
 264:c:\program files\daisytoolchain\arm-none-eabi\include\c++\10.2.1\bits\stl_vector.h **** #define _GLIBCXX_ASAN_ANNOTATE_REINIT
 265:c:\program files\daisytoolchain\arm-none-eabi\include\c++\10.2.1\bits\stl_vector.h **** #define _GLIBCXX_ASAN_ANNOTATE_GROW(n)
 266:c:\program files\daisytoolchain\arm-none-eabi\include\c++\10.2.1\bits\stl_vector.h **** #define _GLIBCXX_ASAN_ANNOTATE_GREW(n)
 267:c:\program files\daisytoolchain\arm-none-eabi\include\c++\10.2.1\bits\stl_vector.h **** #define _GLIBCXX_ASAN_ANNOTATE_SHRINK(n)
 268:c:\program files\daisytoolchain\arm-none-eabi\include\c++\10.2.1\bits\stl_vector.h **** #define _GLIBCXX_ASAN_ANNOTATE_BEFORE_DEALLOC
 269:c:\program files\daisytoolchain\arm-none-eabi\include\c++\10.2.1\bits\stl_vector.h **** #endif // _GLIBCXX_SANITIZE_STD_ALLOCATOR && _GLIBCXX_SANITIZE_VECTOR
 270:c:\program files\daisytoolchain\arm-none-eabi\include\c++\10.2.1\bits\stl_vector.h ****       };
 271:c:\program files\daisytoolchain\arm-none-eabi\include\c++\10.2.1\bits\stl_vector.h **** 
 272:c:\program files\daisytoolchain\arm-none-eabi\include\c++\10.2.1\bits\stl_vector.h ****     public:
 273:c:\program files\daisytoolchain\arm-none-eabi\include\c++\10.2.1\bits\stl_vector.h ****       typedef _Alloc allocator_type;
 274:c:\program files\daisytoolchain\arm-none-eabi\include\c++\10.2.1\bits\stl_vector.h **** 
 275:c:\program files\daisytoolchain\arm-none-eabi\include\c++\10.2.1\bits\stl_vector.h ****       _Tp_alloc_type&
 276:c:\program files\daisytoolchain\arm-none-eabi\include\c++\10.2.1\bits\stl_vector.h ****       _M_get_Tp_allocator() _GLIBCXX_NOEXCEPT
 277:c:\program files\daisytoolchain\arm-none-eabi\include\c++\10.2.1\bits\stl_vector.h ****       { return this->_M_impl; }
 278:c:\program files\daisytoolchain\arm-none-eabi\include\c++\10.2.1\bits\stl_vector.h **** 
 279:c:\program files\daisytoolchain\arm-none-eabi\include\c++\10.2.1\bits\stl_vector.h ****       const _Tp_alloc_type&
 280:c:\program files\daisytoolchain\arm-none-eabi\include\c++\10.2.1\bits\stl_vector.h ****       _M_get_Tp_allocator() const _GLIBCXX_NOEXCEPT
 281:c:\program files\daisytoolchain\arm-none-eabi\include\c++\10.2.1\bits\stl_vector.h ****       { return this->_M_impl; }
 282:c:\program files\daisytoolchain\arm-none-eabi\include\c++\10.2.1\bits\stl_vector.h **** 
 283:c:\program files\daisytoolchain\arm-none-eabi\include\c++\10.2.1\bits\stl_vector.h ****       allocator_type
 284:c:\program files\daisytoolchain\arm-none-eabi\include\c++\10.2.1\bits\stl_vector.h ****       get_allocator() const _GLIBCXX_NOEXCEPT
 285:c:\program files\daisytoolchain\arm-none-eabi\include\c++\10.2.1\bits\stl_vector.h ****       { return allocator_type(_M_get_Tp_allocator()); }
 286:c:\program files\daisytoolchain\arm-none-eabi\include\c++\10.2.1\bits\stl_vector.h **** 
 287:c:\program files\daisytoolchain\arm-none-eabi\include\c++\10.2.1\bits\stl_vector.h **** #if __cplusplus >= 201103L
 288:c:\program files\daisytoolchain\arm-none-eabi\include\c++\10.2.1\bits\stl_vector.h ****       _Vector_base() = default;
 289:c:\program files\daisytoolchain\arm-none-eabi\include\c++\10.2.1\bits\stl_vector.h **** #else
ARM GAS  C:\Users\Grant\AppData\Local\Temp\ccNjaI4C.s 			page 45


 290:c:\program files\daisytoolchain\arm-none-eabi\include\c++\10.2.1\bits\stl_vector.h ****       _Vector_base() { }
 291:c:\program files\daisytoolchain\arm-none-eabi\include\c++\10.2.1\bits\stl_vector.h **** #endif
 292:c:\program files\daisytoolchain\arm-none-eabi\include\c++\10.2.1\bits\stl_vector.h **** 
 293:c:\program files\daisytoolchain\arm-none-eabi\include\c++\10.2.1\bits\stl_vector.h ****       _Vector_base(const allocator_type& __a) _GLIBCXX_NOEXCEPT
 294:c:\program files\daisytoolchain\arm-none-eabi\include\c++\10.2.1\bits\stl_vector.h ****       : _M_impl(__a) { }
 295:c:\program files\daisytoolchain\arm-none-eabi\include\c++\10.2.1\bits\stl_vector.h **** 
 296:c:\program files\daisytoolchain\arm-none-eabi\include\c++\10.2.1\bits\stl_vector.h ****       // Kept for ABI compatibility.
 297:c:\program files\daisytoolchain\arm-none-eabi\include\c++\10.2.1\bits\stl_vector.h **** #if !_GLIBCXX_INLINE_VERSION
 298:c:\program files\daisytoolchain\arm-none-eabi\include\c++\10.2.1\bits\stl_vector.h ****       _Vector_base(size_t __n)
 299:c:\program files\daisytoolchain\arm-none-eabi\include\c++\10.2.1\bits\stl_vector.h ****       : _M_impl()
 300:c:\program files\daisytoolchain\arm-none-eabi\include\c++\10.2.1\bits\stl_vector.h ****       { _M_create_storage(__n); }
 301:c:\program files\daisytoolchain\arm-none-eabi\include\c++\10.2.1\bits\stl_vector.h **** #endif
 302:c:\program files\daisytoolchain\arm-none-eabi\include\c++\10.2.1\bits\stl_vector.h **** 
 303:c:\program files\daisytoolchain\arm-none-eabi\include\c++\10.2.1\bits\stl_vector.h ****       _Vector_base(size_t __n, const allocator_type& __a)
 304:c:\program files\daisytoolchain\arm-none-eabi\include\c++\10.2.1\bits\stl_vector.h ****       : _M_impl(__a)
 305:c:\program files\daisytoolchain\arm-none-eabi\include\c++\10.2.1\bits\stl_vector.h ****       { _M_create_storage(__n); }
 306:c:\program files\daisytoolchain\arm-none-eabi\include\c++\10.2.1\bits\stl_vector.h **** 
 307:c:\program files\daisytoolchain\arm-none-eabi\include\c++\10.2.1\bits\stl_vector.h **** #if __cplusplus >= 201103L
 308:c:\program files\daisytoolchain\arm-none-eabi\include\c++\10.2.1\bits\stl_vector.h ****       _Vector_base(_Vector_base&&) = default;
 309:c:\program files\daisytoolchain\arm-none-eabi\include\c++\10.2.1\bits\stl_vector.h **** 
 310:c:\program files\daisytoolchain\arm-none-eabi\include\c++\10.2.1\bits\stl_vector.h ****       // Kept for ABI compatibility.
 311:c:\program files\daisytoolchain\arm-none-eabi\include\c++\10.2.1\bits\stl_vector.h **** # if !_GLIBCXX_INLINE_VERSION
 312:c:\program files\daisytoolchain\arm-none-eabi\include\c++\10.2.1\bits\stl_vector.h ****       _Vector_base(_Tp_alloc_type&& __a) noexcept
 313:c:\program files\daisytoolchain\arm-none-eabi\include\c++\10.2.1\bits\stl_vector.h ****       : _M_impl(std::move(__a)) { }
 314:c:\program files\daisytoolchain\arm-none-eabi\include\c++\10.2.1\bits\stl_vector.h **** 
 315:c:\program files\daisytoolchain\arm-none-eabi\include\c++\10.2.1\bits\stl_vector.h ****       _Vector_base(_Vector_base&& __x, const allocator_type& __a)
 316:c:\program files\daisytoolchain\arm-none-eabi\include\c++\10.2.1\bits\stl_vector.h ****       : _M_impl(__a)
 317:c:\program files\daisytoolchain\arm-none-eabi\include\c++\10.2.1\bits\stl_vector.h ****       {
 318:c:\program files\daisytoolchain\arm-none-eabi\include\c++\10.2.1\bits\stl_vector.h **** 	if (__x.get_allocator() == __a)
 319:c:\program files\daisytoolchain\arm-none-eabi\include\c++\10.2.1\bits\stl_vector.h **** 	  this->_M_impl._M_swap_data(__x._M_impl);
 320:c:\program files\daisytoolchain\arm-none-eabi\include\c++\10.2.1\bits\stl_vector.h **** 	else
 321:c:\program files\daisytoolchain\arm-none-eabi\include\c++\10.2.1\bits\stl_vector.h **** 	  {
 322:c:\program files\daisytoolchain\arm-none-eabi\include\c++\10.2.1\bits\stl_vector.h **** 	    size_t __n = __x._M_impl._M_finish - __x._M_impl._M_start;
 323:c:\program files\daisytoolchain\arm-none-eabi\include\c++\10.2.1\bits\stl_vector.h **** 	    _M_create_storage(__n);
 324:c:\program files\daisytoolchain\arm-none-eabi\include\c++\10.2.1\bits\stl_vector.h **** 	  }
 325:c:\program files\daisytoolchain\arm-none-eabi\include\c++\10.2.1\bits\stl_vector.h ****       }
 326:c:\program files\daisytoolchain\arm-none-eabi\include\c++\10.2.1\bits\stl_vector.h **** # endif
 327:c:\program files\daisytoolchain\arm-none-eabi\include\c++\10.2.1\bits\stl_vector.h **** 
 328:c:\program files\daisytoolchain\arm-none-eabi\include\c++\10.2.1\bits\stl_vector.h ****       _Vector_base(const allocator_type& __a, _Vector_base&& __x)
 329:c:\program files\daisytoolchain\arm-none-eabi\include\c++\10.2.1\bits\stl_vector.h ****       : _M_impl(_Tp_alloc_type(__a), std::move(__x._M_impl))
 330:c:\program files\daisytoolchain\arm-none-eabi\include\c++\10.2.1\bits\stl_vector.h ****       { }
 331:c:\program files\daisytoolchain\arm-none-eabi\include\c++\10.2.1\bits\stl_vector.h **** #endif
 332:c:\program files\daisytoolchain\arm-none-eabi\include\c++\10.2.1\bits\stl_vector.h **** 
 333:c:\program files\daisytoolchain\arm-none-eabi\include\c++\10.2.1\bits\stl_vector.h ****       ~_Vector_base() _GLIBCXX_NOEXCEPT
 334:c:\program files\daisytoolchain\arm-none-eabi\include\c++\10.2.1\bits\stl_vector.h ****       {
 335:c:\program files\daisytoolchain\arm-none-eabi\include\c++\10.2.1\bits\stl_vector.h **** 	_M_deallocate(_M_impl._M_start,
 336:c:\program files\daisytoolchain\arm-none-eabi\include\c++\10.2.1\bits\stl_vector.h **** 		      _M_impl._M_end_of_storage - _M_impl._M_start);
 337:c:\program files\daisytoolchain\arm-none-eabi\include\c++\10.2.1\bits\stl_vector.h ****       }
 338:c:\program files\daisytoolchain\arm-none-eabi\include\c++\10.2.1\bits\stl_vector.h **** 
 339:c:\program files\daisytoolchain\arm-none-eabi\include\c++\10.2.1\bits\stl_vector.h ****     public:
 340:c:\program files\daisytoolchain\arm-none-eabi\include\c++\10.2.1\bits\stl_vector.h ****       _Vector_impl _M_impl;
 341:c:\program files\daisytoolchain\arm-none-eabi\include\c++\10.2.1\bits\stl_vector.h **** 
 342:c:\program files\daisytoolchain\arm-none-eabi\include\c++\10.2.1\bits\stl_vector.h ****       pointer
 343:c:\program files\daisytoolchain\arm-none-eabi\include\c++\10.2.1\bits\stl_vector.h ****       _M_allocate(size_t __n)
 344:c:\program files\daisytoolchain\arm-none-eabi\include\c++\10.2.1\bits\stl_vector.h ****       {
 345:c:\program files\daisytoolchain\arm-none-eabi\include\c++\10.2.1\bits\stl_vector.h **** 	typedef __gnu_cxx::__alloc_traits<_Tp_alloc_type> _Tr;
 346:c:\program files\daisytoolchain\arm-none-eabi\include\c++\10.2.1\bits\stl_vector.h **** 	return __n != 0 ? _Tr::allocate(_M_impl, __n) : pointer();
ARM GAS  C:\Users\Grant\AppData\Local\Temp\ccNjaI4C.s 			page 46


 347:c:\program files\daisytoolchain\arm-none-eabi\include\c++\10.2.1\bits\stl_vector.h ****       }
 348:c:\program files\daisytoolchain\arm-none-eabi\include\c++\10.2.1\bits\stl_vector.h **** 
 349:c:\program files\daisytoolchain\arm-none-eabi\include\c++\10.2.1\bits\stl_vector.h ****       void
 350:c:\program files\daisytoolchain\arm-none-eabi\include\c++\10.2.1\bits\stl_vector.h ****       _M_deallocate(pointer __p, size_t __n)
 351:c:\program files\daisytoolchain\arm-none-eabi\include\c++\10.2.1\bits\stl_vector.h ****       {
 352:c:\program files\daisytoolchain\arm-none-eabi\include\c++\10.2.1\bits\stl_vector.h **** 	typedef __gnu_cxx::__alloc_traits<_Tp_alloc_type> _Tr;
 353:c:\program files\daisytoolchain\arm-none-eabi\include\c++\10.2.1\bits\stl_vector.h **** 	if (__p)
 354:c:\program files\daisytoolchain\arm-none-eabi\include\c++\10.2.1\bits\stl_vector.h **** 	  _Tr::deallocate(_M_impl, __p, __n);
 355:c:\program files\daisytoolchain\arm-none-eabi\include\c++\10.2.1\bits\stl_vector.h ****       }
 356:c:\program files\daisytoolchain\arm-none-eabi\include\c++\10.2.1\bits\stl_vector.h **** 
 357:c:\program files\daisytoolchain\arm-none-eabi\include\c++\10.2.1\bits\stl_vector.h ****     protected:
 358:c:\program files\daisytoolchain\arm-none-eabi\include\c++\10.2.1\bits\stl_vector.h ****       void
 359:c:\program files\daisytoolchain\arm-none-eabi\include\c++\10.2.1\bits\stl_vector.h ****       _M_create_storage(size_t __n)
 360:c:\program files\daisytoolchain\arm-none-eabi\include\c++\10.2.1\bits\stl_vector.h ****       {
 361:c:\program files\daisytoolchain\arm-none-eabi\include\c++\10.2.1\bits\stl_vector.h **** 	this->_M_impl._M_start = this->_M_allocate(__n);
 362:c:\program files\daisytoolchain\arm-none-eabi\include\c++\10.2.1\bits\stl_vector.h **** 	this->_M_impl._M_finish = this->_M_impl._M_start;
 363:c:\program files\daisytoolchain\arm-none-eabi\include\c++\10.2.1\bits\stl_vector.h **** 	this->_M_impl._M_end_of_storage = this->_M_impl._M_start + __n;
 364:c:\program files\daisytoolchain\arm-none-eabi\include\c++\10.2.1\bits\stl_vector.h ****       }
 365:c:\program files\daisytoolchain\arm-none-eabi\include\c++\10.2.1\bits\stl_vector.h ****     };
 366:c:\program files\daisytoolchain\arm-none-eabi\include\c++\10.2.1\bits\stl_vector.h **** 
 367:c:\program files\daisytoolchain\arm-none-eabi\include\c++\10.2.1\bits\stl_vector.h ****   /**
 368:c:\program files\daisytoolchain\arm-none-eabi\include\c++\10.2.1\bits\stl_vector.h ****    *  @brief A standard container which offers fixed time access to
 369:c:\program files\daisytoolchain\arm-none-eabi\include\c++\10.2.1\bits\stl_vector.h ****    *  individual elements in any order.
 370:c:\program files\daisytoolchain\arm-none-eabi\include\c++\10.2.1\bits\stl_vector.h ****    *
 371:c:\program files\daisytoolchain\arm-none-eabi\include\c++\10.2.1\bits\stl_vector.h ****    *  @ingroup sequences
 372:c:\program files\daisytoolchain\arm-none-eabi\include\c++\10.2.1\bits\stl_vector.h ****    *
 373:c:\program files\daisytoolchain\arm-none-eabi\include\c++\10.2.1\bits\stl_vector.h ****    *  @tparam _Tp  Type of element.
 374:c:\program files\daisytoolchain\arm-none-eabi\include\c++\10.2.1\bits\stl_vector.h ****    *  @tparam _Alloc  Allocator type, defaults to allocator<_Tp>.
 375:c:\program files\daisytoolchain\arm-none-eabi\include\c++\10.2.1\bits\stl_vector.h ****    *
 376:c:\program files\daisytoolchain\arm-none-eabi\include\c++\10.2.1\bits\stl_vector.h ****    *  Meets the requirements of a <a href="tables.html#65">container</a>, a
 377:c:\program files\daisytoolchain\arm-none-eabi\include\c++\10.2.1\bits\stl_vector.h ****    *  <a href="tables.html#66">reversible container</a>, and a
 378:c:\program files\daisytoolchain\arm-none-eabi\include\c++\10.2.1\bits\stl_vector.h ****    *  <a href="tables.html#67">sequence</a>, including the
 379:c:\program files\daisytoolchain\arm-none-eabi\include\c++\10.2.1\bits\stl_vector.h ****    *  <a href="tables.html#68">optional sequence requirements</a> with the
 380:c:\program files\daisytoolchain\arm-none-eabi\include\c++\10.2.1\bits\stl_vector.h ****    *  %exception of @c push_front and @c pop_front.
 381:c:\program files\daisytoolchain\arm-none-eabi\include\c++\10.2.1\bits\stl_vector.h ****    *
 382:c:\program files\daisytoolchain\arm-none-eabi\include\c++\10.2.1\bits\stl_vector.h ****    *  In some terminology a %vector can be described as a dynamic
 383:c:\program files\daisytoolchain\arm-none-eabi\include\c++\10.2.1\bits\stl_vector.h ****    *  C-style array, it offers fast and efficient access to individual
 384:c:\program files\daisytoolchain\arm-none-eabi\include\c++\10.2.1\bits\stl_vector.h ****    *  elements in any order and saves the user from worrying about
 385:c:\program files\daisytoolchain\arm-none-eabi\include\c++\10.2.1\bits\stl_vector.h ****    *  memory and size allocation.  Subscripting ( @c [] ) access is
 386:c:\program files\daisytoolchain\arm-none-eabi\include\c++\10.2.1\bits\stl_vector.h ****    *  also provided as with C-style arrays.
 387:c:\program files\daisytoolchain\arm-none-eabi\include\c++\10.2.1\bits\stl_vector.h ****   */
 388:c:\program files\daisytoolchain\arm-none-eabi\include\c++\10.2.1\bits\stl_vector.h ****   template<typename _Tp, typename _Alloc = std::allocator<_Tp> >
 389:c:\program files\daisytoolchain\arm-none-eabi\include\c++\10.2.1\bits\stl_vector.h ****     class vector : protected _Vector_base<_Tp, _Alloc>
 390:c:\program files\daisytoolchain\arm-none-eabi\include\c++\10.2.1\bits\stl_vector.h ****     {
 391:c:\program files\daisytoolchain\arm-none-eabi\include\c++\10.2.1\bits\stl_vector.h **** #ifdef _GLIBCXX_CONCEPT_CHECKS
 392:c:\program files\daisytoolchain\arm-none-eabi\include\c++\10.2.1\bits\stl_vector.h ****       // Concept requirements.
 393:c:\program files\daisytoolchain\arm-none-eabi\include\c++\10.2.1\bits\stl_vector.h ****       typedef typename _Alloc::value_type		_Alloc_value_type;
 394:c:\program files\daisytoolchain\arm-none-eabi\include\c++\10.2.1\bits\stl_vector.h **** # if __cplusplus < 201103L
 395:c:\program files\daisytoolchain\arm-none-eabi\include\c++\10.2.1\bits\stl_vector.h ****       __glibcxx_class_requires(_Tp, _SGIAssignableConcept)
 396:c:\program files\daisytoolchain\arm-none-eabi\include\c++\10.2.1\bits\stl_vector.h **** # endif
 397:c:\program files\daisytoolchain\arm-none-eabi\include\c++\10.2.1\bits\stl_vector.h ****       __glibcxx_class_requires2(_Tp, _Alloc_value_type, _SameTypeConcept)
 398:c:\program files\daisytoolchain\arm-none-eabi\include\c++\10.2.1\bits\stl_vector.h **** #endif
 399:c:\program files\daisytoolchain\arm-none-eabi\include\c++\10.2.1\bits\stl_vector.h **** 
 400:c:\program files\daisytoolchain\arm-none-eabi\include\c++\10.2.1\bits\stl_vector.h **** #if __cplusplus >= 201103L
 401:c:\program files\daisytoolchain\arm-none-eabi\include\c++\10.2.1\bits\stl_vector.h ****       static_assert(is_same<typename remove_cv<_Tp>::type, _Tp>::value,
 402:c:\program files\daisytoolchain\arm-none-eabi\include\c++\10.2.1\bits\stl_vector.h **** 	  "std::vector must have a non-const, non-volatile value_type");
 403:c:\program files\daisytoolchain\arm-none-eabi\include\c++\10.2.1\bits\stl_vector.h **** # if __cplusplus > 201703L || defined __STRICT_ANSI__
ARM GAS  C:\Users\Grant\AppData\Local\Temp\ccNjaI4C.s 			page 47


 404:c:\program files\daisytoolchain\arm-none-eabi\include\c++\10.2.1\bits\stl_vector.h ****       static_assert(is_same<typename _Alloc::value_type, _Tp>::value,
 405:c:\program files\daisytoolchain\arm-none-eabi\include\c++\10.2.1\bits\stl_vector.h **** 	  "std::vector must have the same value_type as its allocator");
 406:c:\program files\daisytoolchain\arm-none-eabi\include\c++\10.2.1\bits\stl_vector.h **** # endif
 407:c:\program files\daisytoolchain\arm-none-eabi\include\c++\10.2.1\bits\stl_vector.h **** #endif
 408:c:\program files\daisytoolchain\arm-none-eabi\include\c++\10.2.1\bits\stl_vector.h **** 
 409:c:\program files\daisytoolchain\arm-none-eabi\include\c++\10.2.1\bits\stl_vector.h ****       typedef _Vector_base<_Tp, _Alloc>			_Base;
 410:c:\program files\daisytoolchain\arm-none-eabi\include\c++\10.2.1\bits\stl_vector.h ****       typedef typename _Base::_Tp_alloc_type		_Tp_alloc_type;
 411:c:\program files\daisytoolchain\arm-none-eabi\include\c++\10.2.1\bits\stl_vector.h ****       typedef __gnu_cxx::__alloc_traits<_Tp_alloc_type>	_Alloc_traits;
 412:c:\program files\daisytoolchain\arm-none-eabi\include\c++\10.2.1\bits\stl_vector.h **** 
 413:c:\program files\daisytoolchain\arm-none-eabi\include\c++\10.2.1\bits\stl_vector.h ****     public:
 414:c:\program files\daisytoolchain\arm-none-eabi\include\c++\10.2.1\bits\stl_vector.h ****       typedef _Tp					value_type;
 415:c:\program files\daisytoolchain\arm-none-eabi\include\c++\10.2.1\bits\stl_vector.h ****       typedef typename _Base::pointer			pointer;
 416:c:\program files\daisytoolchain\arm-none-eabi\include\c++\10.2.1\bits\stl_vector.h ****       typedef typename _Alloc_traits::const_pointer	const_pointer;
 417:c:\program files\daisytoolchain\arm-none-eabi\include\c++\10.2.1\bits\stl_vector.h ****       typedef typename _Alloc_traits::reference		reference;
 418:c:\program files\daisytoolchain\arm-none-eabi\include\c++\10.2.1\bits\stl_vector.h ****       typedef typename _Alloc_traits::const_reference	const_reference;
 419:c:\program files\daisytoolchain\arm-none-eabi\include\c++\10.2.1\bits\stl_vector.h ****       typedef __gnu_cxx::__normal_iterator<pointer, vector> iterator;
 420:c:\program files\daisytoolchain\arm-none-eabi\include\c++\10.2.1\bits\stl_vector.h ****       typedef __gnu_cxx::__normal_iterator<const_pointer, vector>
 421:c:\program files\daisytoolchain\arm-none-eabi\include\c++\10.2.1\bits\stl_vector.h ****       const_iterator;
 422:c:\program files\daisytoolchain\arm-none-eabi\include\c++\10.2.1\bits\stl_vector.h ****       typedef std::reverse_iterator<const_iterator>	const_reverse_iterator;
 423:c:\program files\daisytoolchain\arm-none-eabi\include\c++\10.2.1\bits\stl_vector.h ****       typedef std::reverse_iterator<iterator>		reverse_iterator;
 424:c:\program files\daisytoolchain\arm-none-eabi\include\c++\10.2.1\bits\stl_vector.h ****       typedef size_t					size_type;
 425:c:\program files\daisytoolchain\arm-none-eabi\include\c++\10.2.1\bits\stl_vector.h ****       typedef ptrdiff_t					difference_type;
 426:c:\program files\daisytoolchain\arm-none-eabi\include\c++\10.2.1\bits\stl_vector.h ****       typedef _Alloc					allocator_type;
 427:c:\program files\daisytoolchain\arm-none-eabi\include\c++\10.2.1\bits\stl_vector.h **** 
 428:c:\program files\daisytoolchain\arm-none-eabi\include\c++\10.2.1\bits\stl_vector.h ****     private:
 429:c:\program files\daisytoolchain\arm-none-eabi\include\c++\10.2.1\bits\stl_vector.h **** #if __cplusplus >= 201103L
 430:c:\program files\daisytoolchain\arm-none-eabi\include\c++\10.2.1\bits\stl_vector.h ****       static constexpr bool
 431:c:\program files\daisytoolchain\arm-none-eabi\include\c++\10.2.1\bits\stl_vector.h ****       _S_nothrow_relocate(true_type)
 432:c:\program files\daisytoolchain\arm-none-eabi\include\c++\10.2.1\bits\stl_vector.h ****       {
 433:c:\program files\daisytoolchain\arm-none-eabi\include\c++\10.2.1\bits\stl_vector.h **** 	return noexcept(std::__relocate_a(std::declval<pointer>(),
 434:c:\program files\daisytoolchain\arm-none-eabi\include\c++\10.2.1\bits\stl_vector.h **** 					  std::declval<pointer>(),
 435:c:\program files\daisytoolchain\arm-none-eabi\include\c++\10.2.1\bits\stl_vector.h **** 					  std::declval<pointer>(),
 436:c:\program files\daisytoolchain\arm-none-eabi\include\c++\10.2.1\bits\stl_vector.h **** 					  std::declval<_Tp_alloc_type&>()));
 437:c:\program files\daisytoolchain\arm-none-eabi\include\c++\10.2.1\bits\stl_vector.h ****       }
 438:c:\program files\daisytoolchain\arm-none-eabi\include\c++\10.2.1\bits\stl_vector.h **** 
 439:c:\program files\daisytoolchain\arm-none-eabi\include\c++\10.2.1\bits\stl_vector.h ****       static constexpr bool
 440:c:\program files\daisytoolchain\arm-none-eabi\include\c++\10.2.1\bits\stl_vector.h ****       _S_nothrow_relocate(false_type)
 441:c:\program files\daisytoolchain\arm-none-eabi\include\c++\10.2.1\bits\stl_vector.h ****       { return false; }
 442:c:\program files\daisytoolchain\arm-none-eabi\include\c++\10.2.1\bits\stl_vector.h **** 
 443:c:\program files\daisytoolchain\arm-none-eabi\include\c++\10.2.1\bits\stl_vector.h ****       static constexpr bool
 444:c:\program files\daisytoolchain\arm-none-eabi\include\c++\10.2.1\bits\stl_vector.h ****       _S_use_relocate()
 445:c:\program files\daisytoolchain\arm-none-eabi\include\c++\10.2.1\bits\stl_vector.h ****       {
 446:c:\program files\daisytoolchain\arm-none-eabi\include\c++\10.2.1\bits\stl_vector.h **** 	// Instantiating std::__relocate_a might cause an error outside the
 447:c:\program files\daisytoolchain\arm-none-eabi\include\c++\10.2.1\bits\stl_vector.h **** 	// immediate context (in __relocate_object_a's noexcept-specifier),
 448:c:\program files\daisytoolchain\arm-none-eabi\include\c++\10.2.1\bits\stl_vector.h **** 	// so only do it if we know the type can be move-inserted into *this.
 449:c:\program files\daisytoolchain\arm-none-eabi\include\c++\10.2.1\bits\stl_vector.h **** 	return _S_nothrow_relocate(__is_move_insertable<_Tp_alloc_type>{});
 450:c:\program files\daisytoolchain\arm-none-eabi\include\c++\10.2.1\bits\stl_vector.h ****       }
 451:c:\program files\daisytoolchain\arm-none-eabi\include\c++\10.2.1\bits\stl_vector.h **** 
 452:c:\program files\daisytoolchain\arm-none-eabi\include\c++\10.2.1\bits\stl_vector.h ****       static pointer
 453:c:\program files\daisytoolchain\arm-none-eabi\include\c++\10.2.1\bits\stl_vector.h ****       _S_do_relocate(pointer __first, pointer __last, pointer __result,
 454:c:\program files\daisytoolchain\arm-none-eabi\include\c++\10.2.1\bits\stl_vector.h **** 		     _Tp_alloc_type& __alloc, true_type) noexcept
 455:c:\program files\daisytoolchain\arm-none-eabi\include\c++\10.2.1\bits\stl_vector.h ****       {
 456:c:\program files\daisytoolchain\arm-none-eabi\include\c++\10.2.1\bits\stl_vector.h **** 	return std::__relocate_a(__first, __last, __result, __alloc);
 457:c:\program files\daisytoolchain\arm-none-eabi\include\c++\10.2.1\bits\stl_vector.h ****       }
 458:c:\program files\daisytoolchain\arm-none-eabi\include\c++\10.2.1\bits\stl_vector.h **** 
 459:c:\program files\daisytoolchain\arm-none-eabi\include\c++\10.2.1\bits\stl_vector.h ****       static pointer
 460:c:\program files\daisytoolchain\arm-none-eabi\include\c++\10.2.1\bits\stl_vector.h ****       _S_do_relocate(pointer, pointer, pointer __result,
ARM GAS  C:\Users\Grant\AppData\Local\Temp\ccNjaI4C.s 			page 48


 461:c:\program files\daisytoolchain\arm-none-eabi\include\c++\10.2.1\bits\stl_vector.h **** 		     _Tp_alloc_type&, false_type) noexcept
 462:c:\program files\daisytoolchain\arm-none-eabi\include\c++\10.2.1\bits\stl_vector.h ****       { return __result; }
 463:c:\program files\daisytoolchain\arm-none-eabi\include\c++\10.2.1\bits\stl_vector.h **** 
 464:c:\program files\daisytoolchain\arm-none-eabi\include\c++\10.2.1\bits\stl_vector.h ****       static pointer
 465:c:\program files\daisytoolchain\arm-none-eabi\include\c++\10.2.1\bits\stl_vector.h ****       _S_relocate(pointer __first, pointer __last, pointer __result,
 466:c:\program files\daisytoolchain\arm-none-eabi\include\c++\10.2.1\bits\stl_vector.h **** 		  _Tp_alloc_type& __alloc) noexcept
 467:c:\program files\daisytoolchain\arm-none-eabi\include\c++\10.2.1\bits\stl_vector.h ****       {
 468:c:\program files\daisytoolchain\arm-none-eabi\include\c++\10.2.1\bits\stl_vector.h **** 	using __do_it = __bool_constant<_S_use_relocate()>;
 469:c:\program files\daisytoolchain\arm-none-eabi\include\c++\10.2.1\bits\stl_vector.h **** 	return _S_do_relocate(__first, __last, __result, __alloc, __do_it{});
 470:c:\program files\daisytoolchain\arm-none-eabi\include\c++\10.2.1\bits\stl_vector.h ****       }
 471:c:\program files\daisytoolchain\arm-none-eabi\include\c++\10.2.1\bits\stl_vector.h **** #endif // C++11
 472:c:\program files\daisytoolchain\arm-none-eabi\include\c++\10.2.1\bits\stl_vector.h **** 
 473:c:\program files\daisytoolchain\arm-none-eabi\include\c++\10.2.1\bits\stl_vector.h ****     protected:
 474:c:\program files\daisytoolchain\arm-none-eabi\include\c++\10.2.1\bits\stl_vector.h ****       using _Base::_M_allocate;
 475:c:\program files\daisytoolchain\arm-none-eabi\include\c++\10.2.1\bits\stl_vector.h ****       using _Base::_M_deallocate;
 476:c:\program files\daisytoolchain\arm-none-eabi\include\c++\10.2.1\bits\stl_vector.h ****       using _Base::_M_impl;
 477:c:\program files\daisytoolchain\arm-none-eabi\include\c++\10.2.1\bits\stl_vector.h ****       using _Base::_M_get_Tp_allocator;
 478:c:\program files\daisytoolchain\arm-none-eabi\include\c++\10.2.1\bits\stl_vector.h **** 
 479:c:\program files\daisytoolchain\arm-none-eabi\include\c++\10.2.1\bits\stl_vector.h ****     public:
 480:c:\program files\daisytoolchain\arm-none-eabi\include\c++\10.2.1\bits\stl_vector.h ****       // [23.2.4.1] construct/copy/destroy
 481:c:\program files\daisytoolchain\arm-none-eabi\include\c++\10.2.1\bits\stl_vector.h ****       // (assign() and get_allocator() are also listed in this section)
 482:c:\program files\daisytoolchain\arm-none-eabi\include\c++\10.2.1\bits\stl_vector.h **** 
 483:c:\program files\daisytoolchain\arm-none-eabi\include\c++\10.2.1\bits\stl_vector.h ****       /**
 484:c:\program files\daisytoolchain\arm-none-eabi\include\c++\10.2.1\bits\stl_vector.h ****        *  @brief  Creates a %vector with no elements.
 485:c:\program files\daisytoolchain\arm-none-eabi\include\c++\10.2.1\bits\stl_vector.h ****        */
 486:c:\program files\daisytoolchain\arm-none-eabi\include\c++\10.2.1\bits\stl_vector.h **** #if __cplusplus >= 201103L
 487:c:\program files\daisytoolchain\arm-none-eabi\include\c++\10.2.1\bits\stl_vector.h ****       vector() = default;
 488:c:\program files\daisytoolchain\arm-none-eabi\include\c++\10.2.1\bits\stl_vector.h **** #else
 489:c:\program files\daisytoolchain\arm-none-eabi\include\c++\10.2.1\bits\stl_vector.h ****       vector() { }
 490:c:\program files\daisytoolchain\arm-none-eabi\include\c++\10.2.1\bits\stl_vector.h **** #endif
 491:c:\program files\daisytoolchain\arm-none-eabi\include\c++\10.2.1\bits\stl_vector.h **** 
 492:c:\program files\daisytoolchain\arm-none-eabi\include\c++\10.2.1\bits\stl_vector.h ****       /**
 493:c:\program files\daisytoolchain\arm-none-eabi\include\c++\10.2.1\bits\stl_vector.h ****        *  @brief  Creates a %vector with no elements.
 494:c:\program files\daisytoolchain\arm-none-eabi\include\c++\10.2.1\bits\stl_vector.h ****        *  @param  __a  An allocator object.
 495:c:\program files\daisytoolchain\arm-none-eabi\include\c++\10.2.1\bits\stl_vector.h ****        */
 496:c:\program files\daisytoolchain\arm-none-eabi\include\c++\10.2.1\bits\stl_vector.h ****       explicit
 497:c:\program files\daisytoolchain\arm-none-eabi\include\c++\10.2.1\bits\stl_vector.h ****       vector(const allocator_type& __a) _GLIBCXX_NOEXCEPT
 498:c:\program files\daisytoolchain\arm-none-eabi\include\c++\10.2.1\bits\stl_vector.h ****       : _Base(__a) { }
 499:c:\program files\daisytoolchain\arm-none-eabi\include\c++\10.2.1\bits\stl_vector.h **** 
 500:c:\program files\daisytoolchain\arm-none-eabi\include\c++\10.2.1\bits\stl_vector.h **** #if __cplusplus >= 201103L
 501:c:\program files\daisytoolchain\arm-none-eabi\include\c++\10.2.1\bits\stl_vector.h ****       /**
 502:c:\program files\daisytoolchain\arm-none-eabi\include\c++\10.2.1\bits\stl_vector.h ****        *  @brief  Creates a %vector with default constructed elements.
 503:c:\program files\daisytoolchain\arm-none-eabi\include\c++\10.2.1\bits\stl_vector.h ****        *  @param  __n  The number of elements to initially create.
 504:c:\program files\daisytoolchain\arm-none-eabi\include\c++\10.2.1\bits\stl_vector.h ****        *  @param  __a  An allocator.
 505:c:\program files\daisytoolchain\arm-none-eabi\include\c++\10.2.1\bits\stl_vector.h ****        *
 506:c:\program files\daisytoolchain\arm-none-eabi\include\c++\10.2.1\bits\stl_vector.h ****        *  This constructor fills the %vector with @a __n default
 507:c:\program files\daisytoolchain\arm-none-eabi\include\c++\10.2.1\bits\stl_vector.h ****        *  constructed elements.
 508:c:\program files\daisytoolchain\arm-none-eabi\include\c++\10.2.1\bits\stl_vector.h ****        */
 509:c:\program files\daisytoolchain\arm-none-eabi\include\c++\10.2.1\bits\stl_vector.h ****       explicit
 510:c:\program files\daisytoolchain\arm-none-eabi\include\c++\10.2.1\bits\stl_vector.h ****       vector(size_type __n, const allocator_type& __a = allocator_type())
 511:c:\program files\daisytoolchain\arm-none-eabi\include\c++\10.2.1\bits\stl_vector.h ****       : _Base(_S_check_init_len(__n, __a), __a)
 512:c:\program files\daisytoolchain\arm-none-eabi\include\c++\10.2.1\bits\stl_vector.h ****       { _M_default_initialize(__n); }
 513:c:\program files\daisytoolchain\arm-none-eabi\include\c++\10.2.1\bits\stl_vector.h **** 
 514:c:\program files\daisytoolchain\arm-none-eabi\include\c++\10.2.1\bits\stl_vector.h ****       /**
 515:c:\program files\daisytoolchain\arm-none-eabi\include\c++\10.2.1\bits\stl_vector.h ****        *  @brief  Creates a %vector with copies of an exemplar element.
 516:c:\program files\daisytoolchain\arm-none-eabi\include\c++\10.2.1\bits\stl_vector.h ****        *  @param  __n  The number of elements to initially create.
 517:c:\program files\daisytoolchain\arm-none-eabi\include\c++\10.2.1\bits\stl_vector.h ****        *  @param  __value  An element to copy.
ARM GAS  C:\Users\Grant\AppData\Local\Temp\ccNjaI4C.s 			page 49


 518:c:\program files\daisytoolchain\arm-none-eabi\include\c++\10.2.1\bits\stl_vector.h ****        *  @param  __a  An allocator.
 519:c:\program files\daisytoolchain\arm-none-eabi\include\c++\10.2.1\bits\stl_vector.h ****        *
 520:c:\program files\daisytoolchain\arm-none-eabi\include\c++\10.2.1\bits\stl_vector.h ****        *  This constructor fills the %vector with @a __n copies of @a __value.
 521:c:\program files\daisytoolchain\arm-none-eabi\include\c++\10.2.1\bits\stl_vector.h ****        */
 522:c:\program files\daisytoolchain\arm-none-eabi\include\c++\10.2.1\bits\stl_vector.h ****       vector(size_type __n, const value_type& __value,
 523:c:\program files\daisytoolchain\arm-none-eabi\include\c++\10.2.1\bits\stl_vector.h **** 	     const allocator_type& __a = allocator_type())
 524:c:\program files\daisytoolchain\arm-none-eabi\include\c++\10.2.1\bits\stl_vector.h ****       : _Base(_S_check_init_len(__n, __a), __a)
 525:c:\program files\daisytoolchain\arm-none-eabi\include\c++\10.2.1\bits\stl_vector.h ****       { _M_fill_initialize(__n, __value); }
 526:c:\program files\daisytoolchain\arm-none-eabi\include\c++\10.2.1\bits\stl_vector.h **** #else
 527:c:\program files\daisytoolchain\arm-none-eabi\include\c++\10.2.1\bits\stl_vector.h ****       /**
 528:c:\program files\daisytoolchain\arm-none-eabi\include\c++\10.2.1\bits\stl_vector.h ****        *  @brief  Creates a %vector with copies of an exemplar element.
 529:c:\program files\daisytoolchain\arm-none-eabi\include\c++\10.2.1\bits\stl_vector.h ****        *  @param  __n  The number of elements to initially create.
 530:c:\program files\daisytoolchain\arm-none-eabi\include\c++\10.2.1\bits\stl_vector.h ****        *  @param  __value  An element to copy.
 531:c:\program files\daisytoolchain\arm-none-eabi\include\c++\10.2.1\bits\stl_vector.h ****        *  @param  __a  An allocator.
 532:c:\program files\daisytoolchain\arm-none-eabi\include\c++\10.2.1\bits\stl_vector.h ****        *
 533:c:\program files\daisytoolchain\arm-none-eabi\include\c++\10.2.1\bits\stl_vector.h ****        *  This constructor fills the %vector with @a __n copies of @a __value.
 534:c:\program files\daisytoolchain\arm-none-eabi\include\c++\10.2.1\bits\stl_vector.h ****        */
 535:c:\program files\daisytoolchain\arm-none-eabi\include\c++\10.2.1\bits\stl_vector.h ****       explicit
 536:c:\program files\daisytoolchain\arm-none-eabi\include\c++\10.2.1\bits\stl_vector.h ****       vector(size_type __n, const value_type& __value = value_type(),
 537:c:\program files\daisytoolchain\arm-none-eabi\include\c++\10.2.1\bits\stl_vector.h **** 	     const allocator_type& __a = allocator_type())
 538:c:\program files\daisytoolchain\arm-none-eabi\include\c++\10.2.1\bits\stl_vector.h ****       : _Base(_S_check_init_len(__n, __a), __a)
 539:c:\program files\daisytoolchain\arm-none-eabi\include\c++\10.2.1\bits\stl_vector.h ****       { _M_fill_initialize(__n, __value); }
 540:c:\program files\daisytoolchain\arm-none-eabi\include\c++\10.2.1\bits\stl_vector.h **** #endif
 541:c:\program files\daisytoolchain\arm-none-eabi\include\c++\10.2.1\bits\stl_vector.h **** 
 542:c:\program files\daisytoolchain\arm-none-eabi\include\c++\10.2.1\bits\stl_vector.h ****       /**
 543:c:\program files\daisytoolchain\arm-none-eabi\include\c++\10.2.1\bits\stl_vector.h ****        *  @brief  %Vector copy constructor.
 544:c:\program files\daisytoolchain\arm-none-eabi\include\c++\10.2.1\bits\stl_vector.h ****        *  @param  __x  A %vector of identical element and allocator types.
 545:c:\program files\daisytoolchain\arm-none-eabi\include\c++\10.2.1\bits\stl_vector.h ****        *
 546:c:\program files\daisytoolchain\arm-none-eabi\include\c++\10.2.1\bits\stl_vector.h ****        *  All the elements of @a __x are copied, but any unused capacity in
 547:c:\program files\daisytoolchain\arm-none-eabi\include\c++\10.2.1\bits\stl_vector.h ****        *  @a __x  will not be copied
 548:c:\program files\daisytoolchain\arm-none-eabi\include\c++\10.2.1\bits\stl_vector.h ****        *  (i.e. capacity() == size() in the new %vector).
 549:c:\program files\daisytoolchain\arm-none-eabi\include\c++\10.2.1\bits\stl_vector.h ****        *
 550:c:\program files\daisytoolchain\arm-none-eabi\include\c++\10.2.1\bits\stl_vector.h ****        *  The newly-created %vector uses a copy of the allocator object used
 551:c:\program files\daisytoolchain\arm-none-eabi\include\c++\10.2.1\bits\stl_vector.h ****        *  by @a __x (unless the allocator traits dictate a different object).
 552:c:\program files\daisytoolchain\arm-none-eabi\include\c++\10.2.1\bits\stl_vector.h ****        */
 553:c:\program files\daisytoolchain\arm-none-eabi\include\c++\10.2.1\bits\stl_vector.h ****       vector(const vector& __x)
 554:c:\program files\daisytoolchain\arm-none-eabi\include\c++\10.2.1\bits\stl_vector.h ****       : _Base(__x.size(),
 555:c:\program files\daisytoolchain\arm-none-eabi\include\c++\10.2.1\bits\stl_vector.h **** 	_Alloc_traits::_S_select_on_copy(__x._M_get_Tp_allocator()))
 556:c:\program files\daisytoolchain\arm-none-eabi\include\c++\10.2.1\bits\stl_vector.h ****       {
 557:c:\program files\daisytoolchain\arm-none-eabi\include\c++\10.2.1\bits\stl_vector.h **** 	this->_M_impl._M_finish =
 558:c:\program files\daisytoolchain\arm-none-eabi\include\c++\10.2.1\bits\stl_vector.h **** 	  std::__uninitialized_copy_a(__x.begin(), __x.end(),
 559:c:\program files\daisytoolchain\arm-none-eabi\include\c++\10.2.1\bits\stl_vector.h **** 				      this->_M_impl._M_start,
 560:c:\program files\daisytoolchain\arm-none-eabi\include\c++\10.2.1\bits\stl_vector.h **** 				      _M_get_Tp_allocator());
 561:c:\program files\daisytoolchain\arm-none-eabi\include\c++\10.2.1\bits\stl_vector.h ****       }
 562:c:\program files\daisytoolchain\arm-none-eabi\include\c++\10.2.1\bits\stl_vector.h **** 
 563:c:\program files\daisytoolchain\arm-none-eabi\include\c++\10.2.1\bits\stl_vector.h **** #if __cplusplus >= 201103L
 564:c:\program files\daisytoolchain\arm-none-eabi\include\c++\10.2.1\bits\stl_vector.h ****       /**
 565:c:\program files\daisytoolchain\arm-none-eabi\include\c++\10.2.1\bits\stl_vector.h ****        *  @brief  %Vector move constructor.
 566:c:\program files\daisytoolchain\arm-none-eabi\include\c++\10.2.1\bits\stl_vector.h ****        *
 567:c:\program files\daisytoolchain\arm-none-eabi\include\c++\10.2.1\bits\stl_vector.h ****        *  The newly-created %vector contains the exact contents of the
 568:c:\program files\daisytoolchain\arm-none-eabi\include\c++\10.2.1\bits\stl_vector.h ****        *  moved instance.
 569:c:\program files\daisytoolchain\arm-none-eabi\include\c++\10.2.1\bits\stl_vector.h ****        *  The contents of the moved instance are a valid, but unspecified
 570:c:\program files\daisytoolchain\arm-none-eabi\include\c++\10.2.1\bits\stl_vector.h ****        *  %vector.
 571:c:\program files\daisytoolchain\arm-none-eabi\include\c++\10.2.1\bits\stl_vector.h ****        */
 572:c:\program files\daisytoolchain\arm-none-eabi\include\c++\10.2.1\bits\stl_vector.h ****       vector(vector&&) noexcept = default;
 573:c:\program files\daisytoolchain\arm-none-eabi\include\c++\10.2.1\bits\stl_vector.h **** 
 574:c:\program files\daisytoolchain\arm-none-eabi\include\c++\10.2.1\bits\stl_vector.h ****       /// Copy constructor with alternative allocator
ARM GAS  C:\Users\Grant\AppData\Local\Temp\ccNjaI4C.s 			page 50


 575:c:\program files\daisytoolchain\arm-none-eabi\include\c++\10.2.1\bits\stl_vector.h ****       vector(const vector& __x, const allocator_type& __a)
 576:c:\program files\daisytoolchain\arm-none-eabi\include\c++\10.2.1\bits\stl_vector.h ****       : _Base(__x.size(), __a)
 577:c:\program files\daisytoolchain\arm-none-eabi\include\c++\10.2.1\bits\stl_vector.h ****       {
 578:c:\program files\daisytoolchain\arm-none-eabi\include\c++\10.2.1\bits\stl_vector.h **** 	this->_M_impl._M_finish =
 579:c:\program files\daisytoolchain\arm-none-eabi\include\c++\10.2.1\bits\stl_vector.h **** 	  std::__uninitialized_copy_a(__x.begin(), __x.end(),
 580:c:\program files\daisytoolchain\arm-none-eabi\include\c++\10.2.1\bits\stl_vector.h **** 				      this->_M_impl._M_start,
 581:c:\program files\daisytoolchain\arm-none-eabi\include\c++\10.2.1\bits\stl_vector.h **** 				      _M_get_Tp_allocator());
 582:c:\program files\daisytoolchain\arm-none-eabi\include\c++\10.2.1\bits\stl_vector.h ****       }
 583:c:\program files\daisytoolchain\arm-none-eabi\include\c++\10.2.1\bits\stl_vector.h **** 
 584:c:\program files\daisytoolchain\arm-none-eabi\include\c++\10.2.1\bits\stl_vector.h ****     private:
 585:c:\program files\daisytoolchain\arm-none-eabi\include\c++\10.2.1\bits\stl_vector.h ****       vector(vector&& __rv, const allocator_type& __m, true_type) noexcept
 586:c:\program files\daisytoolchain\arm-none-eabi\include\c++\10.2.1\bits\stl_vector.h ****       : _Base(__m, std::move(__rv))
 587:c:\program files\daisytoolchain\arm-none-eabi\include\c++\10.2.1\bits\stl_vector.h ****       { }
 588:c:\program files\daisytoolchain\arm-none-eabi\include\c++\10.2.1\bits\stl_vector.h **** 
 589:c:\program files\daisytoolchain\arm-none-eabi\include\c++\10.2.1\bits\stl_vector.h ****       vector(vector&& __rv, const allocator_type& __m, false_type)
 590:c:\program files\daisytoolchain\arm-none-eabi\include\c++\10.2.1\bits\stl_vector.h ****       : _Base(__m)
 591:c:\program files\daisytoolchain\arm-none-eabi\include\c++\10.2.1\bits\stl_vector.h ****       {
 592:c:\program files\daisytoolchain\arm-none-eabi\include\c++\10.2.1\bits\stl_vector.h **** 	if (__rv.get_allocator() == __m)
 593:c:\program files\daisytoolchain\arm-none-eabi\include\c++\10.2.1\bits\stl_vector.h **** 	  this->_M_impl._M_swap_data(__rv._M_impl);
 594:c:\program files\daisytoolchain\arm-none-eabi\include\c++\10.2.1\bits\stl_vector.h **** 	else if (!__rv.empty())
 595:c:\program files\daisytoolchain\arm-none-eabi\include\c++\10.2.1\bits\stl_vector.h **** 	  {
 596:c:\program files\daisytoolchain\arm-none-eabi\include\c++\10.2.1\bits\stl_vector.h **** 	    this->_M_create_storage(__rv.size());
 597:c:\program files\daisytoolchain\arm-none-eabi\include\c++\10.2.1\bits\stl_vector.h **** 	    this->_M_impl._M_finish =
 598:c:\program files\daisytoolchain\arm-none-eabi\include\c++\10.2.1\bits\stl_vector.h **** 	      std::__uninitialized_move_a(__rv.begin(), __rv.end(),
 599:c:\program files\daisytoolchain\arm-none-eabi\include\c++\10.2.1\bits\stl_vector.h **** 					  this->_M_impl._M_start,
 600:c:\program files\daisytoolchain\arm-none-eabi\include\c++\10.2.1\bits\stl_vector.h **** 					  _M_get_Tp_allocator());
 601:c:\program files\daisytoolchain\arm-none-eabi\include\c++\10.2.1\bits\stl_vector.h **** 	    __rv.clear();
 602:c:\program files\daisytoolchain\arm-none-eabi\include\c++\10.2.1\bits\stl_vector.h **** 	  }
 603:c:\program files\daisytoolchain\arm-none-eabi\include\c++\10.2.1\bits\stl_vector.h ****       }
 604:c:\program files\daisytoolchain\arm-none-eabi\include\c++\10.2.1\bits\stl_vector.h **** 
 605:c:\program files\daisytoolchain\arm-none-eabi\include\c++\10.2.1\bits\stl_vector.h ****     public:
 606:c:\program files\daisytoolchain\arm-none-eabi\include\c++\10.2.1\bits\stl_vector.h ****       /// Move constructor with alternative allocator
 607:c:\program files\daisytoolchain\arm-none-eabi\include\c++\10.2.1\bits\stl_vector.h ****       vector(vector&& __rv, const allocator_type& __m)
 608:c:\program files\daisytoolchain\arm-none-eabi\include\c++\10.2.1\bits\stl_vector.h ****       noexcept( noexcept(
 609:c:\program files\daisytoolchain\arm-none-eabi\include\c++\10.2.1\bits\stl_vector.h **** 	vector(std::declval<vector&&>(), std::declval<const allocator_type&>(),
 610:c:\program files\daisytoolchain\arm-none-eabi\include\c++\10.2.1\bits\stl_vector.h **** 	       std::declval<typename _Alloc_traits::is_always_equal>())) )
 611:c:\program files\daisytoolchain\arm-none-eabi\include\c++\10.2.1\bits\stl_vector.h ****       : vector(std::move(__rv), __m, typename _Alloc_traits::is_always_equal{})
 612:c:\program files\daisytoolchain\arm-none-eabi\include\c++\10.2.1\bits\stl_vector.h ****       { }
 613:c:\program files\daisytoolchain\arm-none-eabi\include\c++\10.2.1\bits\stl_vector.h **** 
 614:c:\program files\daisytoolchain\arm-none-eabi\include\c++\10.2.1\bits\stl_vector.h ****       /**
 615:c:\program files\daisytoolchain\arm-none-eabi\include\c++\10.2.1\bits\stl_vector.h ****        *  @brief  Builds a %vector from an initializer list.
 616:c:\program files\daisytoolchain\arm-none-eabi\include\c++\10.2.1\bits\stl_vector.h ****        *  @param  __l  An initializer_list.
 617:c:\program files\daisytoolchain\arm-none-eabi\include\c++\10.2.1\bits\stl_vector.h ****        *  @param  __a  An allocator.
 618:c:\program files\daisytoolchain\arm-none-eabi\include\c++\10.2.1\bits\stl_vector.h ****        *
 619:c:\program files\daisytoolchain\arm-none-eabi\include\c++\10.2.1\bits\stl_vector.h ****        *  Create a %vector consisting of copies of the elements in the
 620:c:\program files\daisytoolchain\arm-none-eabi\include\c++\10.2.1\bits\stl_vector.h ****        *  initializer_list @a __l.
 621:c:\program files\daisytoolchain\arm-none-eabi\include\c++\10.2.1\bits\stl_vector.h ****        *
 622:c:\program files\daisytoolchain\arm-none-eabi\include\c++\10.2.1\bits\stl_vector.h ****        *  This will call the element type's copy constructor N times
 623:c:\program files\daisytoolchain\arm-none-eabi\include\c++\10.2.1\bits\stl_vector.h ****        *  (where N is @a __l.size()) and do no memory reallocation.
 624:c:\program files\daisytoolchain\arm-none-eabi\include\c++\10.2.1\bits\stl_vector.h ****        */
 625:c:\program files\daisytoolchain\arm-none-eabi\include\c++\10.2.1\bits\stl_vector.h ****       vector(initializer_list<value_type> __l,
 765              		.loc 11 625 7 is_stmt 1 view .LVU176
 766              	.LBB1391:
 767              	.LBI1391:
 293:c:\program files\daisytoolchain\arm-none-eabi\include\c++\10.2.1\bits\stl_vector.h ****       : _M_impl(__a) { }
 768              		.loc 11 293 7 view .LVU177
 769              	.LBB1392:
ARM GAS  C:\Users\Grant\AppData\Local\Temp\ccNjaI4C.s 			page 51


 770              	.LBI1392:
 136:c:\program files\daisytoolchain\arm-none-eabi\include\c++\10.2.1\bits\stl_vector.h **** 	: _Tp_alloc_type(__a)
 771              		.loc 11 136 2 view .LVU178
 772              	.LBB1393:
 773              	.LBI1393:
 145:c:\program files\daisytoolchain\arm-none-eabi\include\c++\10.2.1\bits\allocator.h **** 
 146:c:\program files\daisytoolchain\arm-none-eabi\include\c++\10.2.1\bits\allocator.h ****       _GLIBCXX20_CONSTEXPR
 147:c:\program files\daisytoolchain\arm-none-eabi\include\c++\10.2.1\bits\allocator.h ****       allocator(const allocator& __a) _GLIBCXX_NOTHROW
 774              		.loc 14 147 7 view .LVU179
 775              	.LBB1394:
 776              	.LBI1394:
  82:c:\program files\daisytoolchain\arm-none-eabi\include\c++\10.2.1\ext\new_allocator.h **** 
 777              		.loc 13 82 7 view .LVU180
  82:c:\program files\daisytoolchain\arm-none-eabi\include\c++\10.2.1\ext\new_allocator.h **** 
 778              		.loc 13 82 7 is_stmt 0 view .LVU181
 779              	.LBE1394:
 780              	.LBE1393:
 781              	.LBB1395:
 782              	.LBI1395:
  97:c:\program files\daisytoolchain\arm-none-eabi\include\c++\10.2.1\bits\stl_vector.h **** 	: _M_start(), _M_finish(), _M_end_of_storage()
 783              		.loc 11 97 2 is_stmt 1 view .LVU182
  97:c:\program files\daisytoolchain\arm-none-eabi\include\c++\10.2.1\bits\stl_vector.h **** 	: _M_start(), _M_finish(), _M_end_of_storage()
 784              		.loc 11 97 2 is_stmt 0 view .LVU183
 785              	.LBE1395:
 786              	.LBE1392:
 787              	.LBE1391:
 788              	.LBB1396:
 789              	.LBI1396:
 790              		.file 15 "c:\\program files\\daisytoolchain\\arm-none-eabi\\include\\c++\\10.2.1\\initializer_list
   1:c:\program files\daisytoolchain\arm-none-eabi\include\c++\10.2.1\initializer_list **** // std::initializer_list support -*- C++ -*-
   2:c:\program files\daisytoolchain\arm-none-eabi\include\c++\10.2.1\initializer_list **** 
   3:c:\program files\daisytoolchain\arm-none-eabi\include\c++\10.2.1\initializer_list **** // Copyright (C) 2008-2020 Free Software Foundation, Inc.
   4:c:\program files\daisytoolchain\arm-none-eabi\include\c++\10.2.1\initializer_list **** //
   5:c:\program files\daisytoolchain\arm-none-eabi\include\c++\10.2.1\initializer_list **** // This file is part of GCC.
   6:c:\program files\daisytoolchain\arm-none-eabi\include\c++\10.2.1\initializer_list **** //
   7:c:\program files\daisytoolchain\arm-none-eabi\include\c++\10.2.1\initializer_list **** // GCC is free software; you can redistribute it and/or modify
   8:c:\program files\daisytoolchain\arm-none-eabi\include\c++\10.2.1\initializer_list **** // it under the terms of the GNU General Public License as published by
   9:c:\program files\daisytoolchain\arm-none-eabi\include\c++\10.2.1\initializer_list **** // the Free Software Foundation; either version 3, or (at your option)
  10:c:\program files\daisytoolchain\arm-none-eabi\include\c++\10.2.1\initializer_list **** // any later version.
  11:c:\program files\daisytoolchain\arm-none-eabi\include\c++\10.2.1\initializer_list **** //
  12:c:\program files\daisytoolchain\arm-none-eabi\include\c++\10.2.1\initializer_list **** // GCC is distributed in the hope that it will be useful,
  13:c:\program files\daisytoolchain\arm-none-eabi\include\c++\10.2.1\initializer_list **** // but WITHOUT ANY WARRANTY; without even the implied warranty of
  14:c:\program files\daisytoolchain\arm-none-eabi\include\c++\10.2.1\initializer_list **** // MERCHANTABILITY or FITNESS FOR A PARTICULAR PURPOSE.  See the
  15:c:\program files\daisytoolchain\arm-none-eabi\include\c++\10.2.1\initializer_list **** // GNU General Public License for more details.
  16:c:\program files\daisytoolchain\arm-none-eabi\include\c++\10.2.1\initializer_list **** //
  17:c:\program files\daisytoolchain\arm-none-eabi\include\c++\10.2.1\initializer_list **** // Under Section 7 of GPL version 3, you are granted additional
  18:c:\program files\daisytoolchain\arm-none-eabi\include\c++\10.2.1\initializer_list **** // permissions described in the GCC Runtime Library Exception, version
  19:c:\program files\daisytoolchain\arm-none-eabi\include\c++\10.2.1\initializer_list **** // 3.1, as published by the Free Software Foundation.
  20:c:\program files\daisytoolchain\arm-none-eabi\include\c++\10.2.1\initializer_list **** 
  21:c:\program files\daisytoolchain\arm-none-eabi\include\c++\10.2.1\initializer_list **** // You should have received a copy of the GNU General Public License and
  22:c:\program files\daisytoolchain\arm-none-eabi\include\c++\10.2.1\initializer_list **** // a copy of the GCC Runtime Library Exception along with this program;
  23:c:\program files\daisytoolchain\arm-none-eabi\include\c++\10.2.1\initializer_list **** // see the files COPYING3 and COPYING.RUNTIME respectively.  If not, see
  24:c:\program files\daisytoolchain\arm-none-eabi\include\c++\10.2.1\initializer_list **** // <http://www.gnu.org/licenses/>.
  25:c:\program files\daisytoolchain\arm-none-eabi\include\c++\10.2.1\initializer_list **** 
  26:c:\program files\daisytoolchain\arm-none-eabi\include\c++\10.2.1\initializer_list **** /** @file initializer_list
  27:c:\program files\daisytoolchain\arm-none-eabi\include\c++\10.2.1\initializer_list ****  *  This is a Standard C++ Library header.
  28:c:\program files\daisytoolchain\arm-none-eabi\include\c++\10.2.1\initializer_list ****  */
ARM GAS  C:\Users\Grant\AppData\Local\Temp\ccNjaI4C.s 			page 52


  29:c:\program files\daisytoolchain\arm-none-eabi\include\c++\10.2.1\initializer_list **** 
  30:c:\program files\daisytoolchain\arm-none-eabi\include\c++\10.2.1\initializer_list **** #ifndef _INITIALIZER_LIST
  31:c:\program files\daisytoolchain\arm-none-eabi\include\c++\10.2.1\initializer_list **** #define _INITIALIZER_LIST
  32:c:\program files\daisytoolchain\arm-none-eabi\include\c++\10.2.1\initializer_list **** 
  33:c:\program files\daisytoolchain\arm-none-eabi\include\c++\10.2.1\initializer_list **** #pragma GCC system_header
  34:c:\program files\daisytoolchain\arm-none-eabi\include\c++\10.2.1\initializer_list **** 
  35:c:\program files\daisytoolchain\arm-none-eabi\include\c++\10.2.1\initializer_list **** #if __cplusplus < 201103L
  36:c:\program files\daisytoolchain\arm-none-eabi\include\c++\10.2.1\initializer_list **** # include <bits/c++0x_warning.h>
  37:c:\program files\daisytoolchain\arm-none-eabi\include\c++\10.2.1\initializer_list **** #else // C++0x
  38:c:\program files\daisytoolchain\arm-none-eabi\include\c++\10.2.1\initializer_list **** 
  39:c:\program files\daisytoolchain\arm-none-eabi\include\c++\10.2.1\initializer_list **** #pragma GCC visibility push(default)
  40:c:\program files\daisytoolchain\arm-none-eabi\include\c++\10.2.1\initializer_list **** 
  41:c:\program files\daisytoolchain\arm-none-eabi\include\c++\10.2.1\initializer_list **** #include <bits/c++config.h>
  42:c:\program files\daisytoolchain\arm-none-eabi\include\c++\10.2.1\initializer_list **** 
  43:c:\program files\daisytoolchain\arm-none-eabi\include\c++\10.2.1\initializer_list **** namespace std
  44:c:\program files\daisytoolchain\arm-none-eabi\include\c++\10.2.1\initializer_list **** {
  45:c:\program files\daisytoolchain\arm-none-eabi\include\c++\10.2.1\initializer_list ****   /// initializer_list
  46:c:\program files\daisytoolchain\arm-none-eabi\include\c++\10.2.1\initializer_list ****   template<class _E>
  47:c:\program files\daisytoolchain\arm-none-eabi\include\c++\10.2.1\initializer_list ****     class initializer_list
  48:c:\program files\daisytoolchain\arm-none-eabi\include\c++\10.2.1\initializer_list ****     {
  49:c:\program files\daisytoolchain\arm-none-eabi\include\c++\10.2.1\initializer_list ****     public:
  50:c:\program files\daisytoolchain\arm-none-eabi\include\c++\10.2.1\initializer_list ****       typedef _E 		value_type;
  51:c:\program files\daisytoolchain\arm-none-eabi\include\c++\10.2.1\initializer_list ****       typedef const _E& 	reference;
  52:c:\program files\daisytoolchain\arm-none-eabi\include\c++\10.2.1\initializer_list ****       typedef const _E& 	const_reference;
  53:c:\program files\daisytoolchain\arm-none-eabi\include\c++\10.2.1\initializer_list ****       typedef size_t 		size_type;
  54:c:\program files\daisytoolchain\arm-none-eabi\include\c++\10.2.1\initializer_list ****       typedef const _E* 	iterator;
  55:c:\program files\daisytoolchain\arm-none-eabi\include\c++\10.2.1\initializer_list ****       typedef const _E* 	const_iterator;
  56:c:\program files\daisytoolchain\arm-none-eabi\include\c++\10.2.1\initializer_list **** 
  57:c:\program files\daisytoolchain\arm-none-eabi\include\c++\10.2.1\initializer_list ****     private:
  58:c:\program files\daisytoolchain\arm-none-eabi\include\c++\10.2.1\initializer_list ****       iterator			_M_array;
  59:c:\program files\daisytoolchain\arm-none-eabi\include\c++\10.2.1\initializer_list ****       size_type			_M_len;
  60:c:\program files\daisytoolchain\arm-none-eabi\include\c++\10.2.1\initializer_list **** 
  61:c:\program files\daisytoolchain\arm-none-eabi\include\c++\10.2.1\initializer_list ****       // The compiler can call a private constructor.
  62:c:\program files\daisytoolchain\arm-none-eabi\include\c++\10.2.1\initializer_list ****       constexpr initializer_list(const_iterator __a, size_type __l)
  63:c:\program files\daisytoolchain\arm-none-eabi\include\c++\10.2.1\initializer_list ****       : _M_array(__a), _M_len(__l) { }
  64:c:\program files\daisytoolchain\arm-none-eabi\include\c++\10.2.1\initializer_list **** 
  65:c:\program files\daisytoolchain\arm-none-eabi\include\c++\10.2.1\initializer_list ****     public:
  66:c:\program files\daisytoolchain\arm-none-eabi\include\c++\10.2.1\initializer_list ****       constexpr initializer_list() noexcept
  67:c:\program files\daisytoolchain\arm-none-eabi\include\c++\10.2.1\initializer_list ****       : _M_array(0), _M_len(0) { }
  68:c:\program files\daisytoolchain\arm-none-eabi\include\c++\10.2.1\initializer_list **** 
  69:c:\program files\daisytoolchain\arm-none-eabi\include\c++\10.2.1\initializer_list ****       // Number of elements.
  70:c:\program files\daisytoolchain\arm-none-eabi\include\c++\10.2.1\initializer_list ****       constexpr size_type
  71:c:\program files\daisytoolchain\arm-none-eabi\include\c++\10.2.1\initializer_list ****       size() const noexcept { return _M_len; }
  72:c:\program files\daisytoolchain\arm-none-eabi\include\c++\10.2.1\initializer_list **** 
  73:c:\program files\daisytoolchain\arm-none-eabi\include\c++\10.2.1\initializer_list ****       // First element.
  74:c:\program files\daisytoolchain\arm-none-eabi\include\c++\10.2.1\initializer_list ****       constexpr const_iterator
  75:c:\program files\daisytoolchain\arm-none-eabi\include\c++\10.2.1\initializer_list ****       begin() const noexcept { return _M_array; }
 791              		.loc 15 75 7 is_stmt 1 view .LVU184
 792              		.loc 15 75 7 is_stmt 0 view .LVU185
 793              	.LBE1396:
 794              	.LBB1397:
 795              	.LBI1397:
  76:c:\program files\daisytoolchain\arm-none-eabi\include\c++\10.2.1\initializer_list **** 
  77:c:\program files\daisytoolchain\arm-none-eabi\include\c++\10.2.1\initializer_list ****       // One past the last element.
  78:c:\program files\daisytoolchain\arm-none-eabi\include\c++\10.2.1\initializer_list ****       constexpr const_iterator
  79:c:\program files\daisytoolchain\arm-none-eabi\include\c++\10.2.1\initializer_list ****       end() const noexcept { return begin() + size(); }
 796              		.loc 15 79 7 is_stmt 1 view .LVU186
ARM GAS  C:\Users\Grant\AppData\Local\Temp\ccNjaI4C.s 			page 53


 797              		.loc 15 79 7 is_stmt 0 view .LVU187
 798              	.LBE1397:
 799              	.LBB1398:
 800              	.LBI1316:
 626:c:\program files\daisytoolchain\arm-none-eabi\include\c++\10.2.1\bits\stl_vector.h **** 	     const allocator_type& __a = allocator_type())
 627:c:\program files\daisytoolchain\arm-none-eabi\include\c++\10.2.1\bits\stl_vector.h ****       : _Base(__a)
 628:c:\program files\daisytoolchain\arm-none-eabi\include\c++\10.2.1\bits\stl_vector.h ****       {
 629:c:\program files\daisytoolchain\arm-none-eabi\include\c++\10.2.1\bits\stl_vector.h **** 	_M_range_initialize(__l.begin(), __l.end(),
 630:c:\program files\daisytoolchain\arm-none-eabi\include\c++\10.2.1\bits\stl_vector.h **** 			    random_access_iterator_tag());
 631:c:\program files\daisytoolchain\arm-none-eabi\include\c++\10.2.1\bits\stl_vector.h ****       }
 632:c:\program files\daisytoolchain\arm-none-eabi\include\c++\10.2.1\bits\stl_vector.h **** #endif
 633:c:\program files\daisytoolchain\arm-none-eabi\include\c++\10.2.1\bits\stl_vector.h **** 
 634:c:\program files\daisytoolchain\arm-none-eabi\include\c++\10.2.1\bits\stl_vector.h ****       /**
 635:c:\program files\daisytoolchain\arm-none-eabi\include\c++\10.2.1\bits\stl_vector.h ****        *  @brief  Builds a %vector from a range.
 636:c:\program files\daisytoolchain\arm-none-eabi\include\c++\10.2.1\bits\stl_vector.h ****        *  @param  __first  An input iterator.
 637:c:\program files\daisytoolchain\arm-none-eabi\include\c++\10.2.1\bits\stl_vector.h ****        *  @param  __last  An input iterator.
 638:c:\program files\daisytoolchain\arm-none-eabi\include\c++\10.2.1\bits\stl_vector.h ****        *  @param  __a  An allocator.
 639:c:\program files\daisytoolchain\arm-none-eabi\include\c++\10.2.1\bits\stl_vector.h ****        *
 640:c:\program files\daisytoolchain\arm-none-eabi\include\c++\10.2.1\bits\stl_vector.h ****        *  Create a %vector consisting of copies of the elements from
 641:c:\program files\daisytoolchain\arm-none-eabi\include\c++\10.2.1\bits\stl_vector.h ****        *  [first,last).
 642:c:\program files\daisytoolchain\arm-none-eabi\include\c++\10.2.1\bits\stl_vector.h ****        *
 643:c:\program files\daisytoolchain\arm-none-eabi\include\c++\10.2.1\bits\stl_vector.h ****        *  If the iterators are forward, bidirectional, or
 644:c:\program files\daisytoolchain\arm-none-eabi\include\c++\10.2.1\bits\stl_vector.h ****        *  random-access, then this will call the elements' copy
 645:c:\program files\daisytoolchain\arm-none-eabi\include\c++\10.2.1\bits\stl_vector.h ****        *  constructor N times (where N is distance(first,last)) and do
 646:c:\program files\daisytoolchain\arm-none-eabi\include\c++\10.2.1\bits\stl_vector.h ****        *  no memory reallocation.  But if only input iterators are
 647:c:\program files\daisytoolchain\arm-none-eabi\include\c++\10.2.1\bits\stl_vector.h ****        *  used, then this will do at most 2N calls to the copy
 648:c:\program files\daisytoolchain\arm-none-eabi\include\c++\10.2.1\bits\stl_vector.h ****        *  constructor, and logN memory reallocations.
 649:c:\program files\daisytoolchain\arm-none-eabi\include\c++\10.2.1\bits\stl_vector.h ****        */
 650:c:\program files\daisytoolchain\arm-none-eabi\include\c++\10.2.1\bits\stl_vector.h **** #if __cplusplus >= 201103L
 651:c:\program files\daisytoolchain\arm-none-eabi\include\c++\10.2.1\bits\stl_vector.h ****       template<typename _InputIterator,
 652:c:\program files\daisytoolchain\arm-none-eabi\include\c++\10.2.1\bits\stl_vector.h **** 	       typename = std::_RequireInputIter<_InputIterator>>
 653:c:\program files\daisytoolchain\arm-none-eabi\include\c++\10.2.1\bits\stl_vector.h **** 	vector(_InputIterator __first, _InputIterator __last,
 654:c:\program files\daisytoolchain\arm-none-eabi\include\c++\10.2.1\bits\stl_vector.h **** 	       const allocator_type& __a = allocator_type())
 655:c:\program files\daisytoolchain\arm-none-eabi\include\c++\10.2.1\bits\stl_vector.h **** 	: _Base(__a)
 656:c:\program files\daisytoolchain\arm-none-eabi\include\c++\10.2.1\bits\stl_vector.h **** 	{
 657:c:\program files\daisytoolchain\arm-none-eabi\include\c++\10.2.1\bits\stl_vector.h **** 	  _M_range_initialize(__first, __last,
 658:c:\program files\daisytoolchain\arm-none-eabi\include\c++\10.2.1\bits\stl_vector.h **** 			      std::__iterator_category(__first));
 659:c:\program files\daisytoolchain\arm-none-eabi\include\c++\10.2.1\bits\stl_vector.h **** 	}
 660:c:\program files\daisytoolchain\arm-none-eabi\include\c++\10.2.1\bits\stl_vector.h **** #else
 661:c:\program files\daisytoolchain\arm-none-eabi\include\c++\10.2.1\bits\stl_vector.h ****       template<typename _InputIterator>
 662:c:\program files\daisytoolchain\arm-none-eabi\include\c++\10.2.1\bits\stl_vector.h **** 	vector(_InputIterator __first, _InputIterator __last,
 663:c:\program files\daisytoolchain\arm-none-eabi\include\c++\10.2.1\bits\stl_vector.h **** 	       const allocator_type& __a = allocator_type())
 664:c:\program files\daisytoolchain\arm-none-eabi\include\c++\10.2.1\bits\stl_vector.h **** 	: _Base(__a)
 665:c:\program files\daisytoolchain\arm-none-eabi\include\c++\10.2.1\bits\stl_vector.h **** 	{
 666:c:\program files\daisytoolchain\arm-none-eabi\include\c++\10.2.1\bits\stl_vector.h **** 	  // Check whether it's an integral type.  If so, it's not an iterator.
 667:c:\program files\daisytoolchain\arm-none-eabi\include\c++\10.2.1\bits\stl_vector.h **** 	  typedef typename std::__is_integer<_InputIterator>::__type _Integral;
 668:c:\program files\daisytoolchain\arm-none-eabi\include\c++\10.2.1\bits\stl_vector.h **** 	  _M_initialize_dispatch(__first, __last, _Integral());
 669:c:\program files\daisytoolchain\arm-none-eabi\include\c++\10.2.1\bits\stl_vector.h **** 	}
 670:c:\program files\daisytoolchain\arm-none-eabi\include\c++\10.2.1\bits\stl_vector.h **** #endif
 671:c:\program files\daisytoolchain\arm-none-eabi\include\c++\10.2.1\bits\stl_vector.h **** 
 672:c:\program files\daisytoolchain\arm-none-eabi\include\c++\10.2.1\bits\stl_vector.h ****       /**
 673:c:\program files\daisytoolchain\arm-none-eabi\include\c++\10.2.1\bits\stl_vector.h ****        *  The dtor only erases the elements, and note that if the
 674:c:\program files\daisytoolchain\arm-none-eabi\include\c++\10.2.1\bits\stl_vector.h ****        *  elements themselves are pointers, the pointed-to memory is
 675:c:\program files\daisytoolchain\arm-none-eabi\include\c++\10.2.1\bits\stl_vector.h ****        *  not touched in any way.  Managing the pointer is the user's
 676:c:\program files\daisytoolchain\arm-none-eabi\include\c++\10.2.1\bits\stl_vector.h ****        *  responsibility.
 677:c:\program files\daisytoolchain\arm-none-eabi\include\c++\10.2.1\bits\stl_vector.h ****        */
 678:c:\program files\daisytoolchain\arm-none-eabi\include\c++\10.2.1\bits\stl_vector.h ****       ~vector() _GLIBCXX_NOEXCEPT
ARM GAS  C:\Users\Grant\AppData\Local\Temp\ccNjaI4C.s 			page 54


 679:c:\program files\daisytoolchain\arm-none-eabi\include\c++\10.2.1\bits\stl_vector.h ****       {
 680:c:\program files\daisytoolchain\arm-none-eabi\include\c++\10.2.1\bits\stl_vector.h **** 	std::_Destroy(this->_M_impl._M_start, this->_M_impl._M_finish,
 681:c:\program files\daisytoolchain\arm-none-eabi\include\c++\10.2.1\bits\stl_vector.h **** 		      _M_get_Tp_allocator());
 682:c:\program files\daisytoolchain\arm-none-eabi\include\c++\10.2.1\bits\stl_vector.h **** 	_GLIBCXX_ASAN_ANNOTATE_BEFORE_DEALLOC;
 683:c:\program files\daisytoolchain\arm-none-eabi\include\c++\10.2.1\bits\stl_vector.h ****       }
 684:c:\program files\daisytoolchain\arm-none-eabi\include\c++\10.2.1\bits\stl_vector.h **** 
 685:c:\program files\daisytoolchain\arm-none-eabi\include\c++\10.2.1\bits\stl_vector.h ****       /**
 686:c:\program files\daisytoolchain\arm-none-eabi\include\c++\10.2.1\bits\stl_vector.h ****        *  @brief  %Vector assignment operator.
 687:c:\program files\daisytoolchain\arm-none-eabi\include\c++\10.2.1\bits\stl_vector.h ****        *  @param  __x  A %vector of identical element and allocator types.
 688:c:\program files\daisytoolchain\arm-none-eabi\include\c++\10.2.1\bits\stl_vector.h ****        *
 689:c:\program files\daisytoolchain\arm-none-eabi\include\c++\10.2.1\bits\stl_vector.h ****        *  All the elements of @a __x are copied, but any unused capacity in
 690:c:\program files\daisytoolchain\arm-none-eabi\include\c++\10.2.1\bits\stl_vector.h ****        *  @a __x will not be copied.
 691:c:\program files\daisytoolchain\arm-none-eabi\include\c++\10.2.1\bits\stl_vector.h ****        *
